
========================================================================

** ELF Header Information

    File Name: .\output\Timer_Demo.axf

    Machine class: ELFCLASS32 (32-bit)
    Data encoding: ELFDATA2LSB (Little endian)
    Header version: EV_CURRENT (Current version)
    Operating System ABI: none
    ABI Version: 0
    File Type: ET_EXEC (Executable) (2)
    Machine: EM_ARM (ARM)

    Image Entry point: 0x0000046d
    Flags: EF_ARM_HASENTRY (0x05000002)

    ARM ELF revision: 5 (ABI version 2)

    Built with
    ARM C/C++ Compiler, 5.03 [Build 76]
    ARM Assembler, 5.03 [Build 76]
    ARM Linker, 5.03 [Build 76] 

    Header size: 52 bytes (0x34)
    Program header entry size: 32 bytes (0x20)
    Section header entry size: 40 bytes (0x28)

    Program header entries: 1
    Section header entries: 16

    Program header offset: 64532 (0x0000fc14)
    Section header offset: 64564 (0x0000fc34)

    Section header string table index: 15

========================================================================

** Program header #0 (PT_LOAD) [PF_X + PF_W + PF_R + PF_ARM_ENTRY]
    Size : 18320 bytes (17108 bytes in file)
    Virtual address: 0x00000000 (Alignment 8)


========================================================================

** Section #1 'ER_RO' (SHT_PROGBITS) [SHF_ALLOC + SHF_EXECINSTR]
    Size   : 17032 bytes (alignment 8)
    Address: 0x00000000

    $d.realdata
    RESET
    __Vectors
        0x00000000:    20000508    ...     DCD    536872200
        0x00000004:    0000046d    m...    DCD    1133
        0x00000008:    0000048d    ....    DCD    1165
        0x0000000c:    0000048f    ....    DCD    1167
        0x00000010:    00000000    ....    DCD    0
        0x00000014:    00000000    ....    DCD    0
        0x00000018:    00000000    ....    DCD    0
        0x0000001c:    00000000    ....    DCD    0
        0x00000020:    00000000    ....    DCD    0
        0x00000024:    00000000    ....    DCD    0
        0x00000028:    00000000    ....    DCD    0
        0x0000002c:    00000491    ....    DCD    1169
        0x00000030:    00000000    ....    DCD    0
        0x00000034:    00000000    ....    DCD    0
        0x00000038:    00000493    ....    DCD    1171
        0x0000003c:    00000495    ....    DCD    1173
        0x00000040:    00000497    ....    DCD    1175
        0x00000044:    00000497    ....    DCD    1175
        0x00000048:    00000497    ....    DCD    1175
        0x0000004c:    00000497    ....    DCD    1175
        0x00000050:    00000497    ....    DCD    1175
        0x00000054:    00000497    ....    DCD    1175
        0x00000058:    00000497    ....    DCD    1175
        0x0000005c:    00000497    ....    DCD    1175
        0x00000060:    00000497    ....    DCD    1175
        0x00000064:    00000497    ....    DCD    1175
        0x00000068:    0000020b    ....    DCD    523
        0x0000006c:    00000497    ....    DCD    1175
        0x00000070:    00001a7b    {...    DCD    6779
        0x00000074:    00001bcd    ....    DCD    7117
        0x00000078:    00000497    ....    DCD    1175
        0x0000007c:    00000497    ....    DCD    1175
        0x00000080:    00000497    ....    DCD    1175
        0x00000084:    00000497    ....    DCD    1175
        0x00000088:    00000497    ....    DCD    1175
        0x0000008c:    00000497    ....    DCD    1175
        0x00000090:    00000497    ....    DCD    1175
        0x00000094:    00000497    ....    DCD    1175
        0x00000098:    00000497    ....    DCD    1175
        0x0000009c:    00000497    ....    DCD    1175
        0x000000a0:    00000497    ....    DCD    1175
        0x000000a4:    00000497    ....    DCD    1175
        0x000000a8:    00000497    ....    DCD    1175
        0x000000ac:    00000497    ....    DCD    1175
        0x000000b0:    00000497    ....    DCD    1175
        0x000000b4:    00000497    ....    DCD    1175
        0x000000b8:    00000497    ....    DCD    1175
        0x000000bc:    00000497    ....    DCD    1175
    $t
    !!!main
    __main
        0x000000c0:    f000f802    ....    BL       __scatterload ; 0xc8
        0x000000c4:    f000f855    ..U.    BL       __rt_entry ; 0x172
    !!!scatter
    __scatterload
    __scatterload_rt2
    __scatterload_rt2_thumb_only
        0x000000c8:    a00c        ..      ADR      r0,{pc}+0x34 ; 0xfc
        0x000000ca:    c830        0.      LDM      r0!,{r4,r5}
        0x000000cc:    3808        .8      SUBS     r0,r0,#8
        0x000000ce:    1824        $.      ADDS     r4,r4,r0
        0x000000d0:    182d        -.      ADDS     r5,r5,r0
        0x000000d2:    46a2        .F      MOV      r10,r4
        0x000000d4:    1e67        g.      SUBS     r7,r4,#1
        0x000000d6:    46ab        .F      MOV      r11,r5
    __scatterload_null
        0x000000d8:    4654        TF      MOV      r4,r10
        0x000000da:    465d        ]F      MOV      r5,r11
        0x000000dc:    42ac        .B      CMP      r4,r5
        0x000000de:    d101        ..      BNE      0xe4 ; __scatterload_null + 12
        0x000000e0:    f000f847    ..G.    BL       __rt_entry ; 0x172
        0x000000e4:    467e        ~F      MOV      r6,pc
        0x000000e6:    3e0f        .>      SUBS     r6,r6,#0xf
        0x000000e8:    cc0f        ..      LDM      r4!,{r0-r3}
        0x000000ea:    46b6        .F      MOV      lr,r6
        0x000000ec:    2601        .&      MOVS     r6,#1
        0x000000ee:    4233        3B      TST      r3,r6
        0x000000f0:    d000        ..      BEQ      0xf4 ; __scatterload_null + 28
        0x000000f2:    1afb        ..      SUBS     r3,r7,r3
        0x000000f4:    46a2        .F      MOV      r10,r4
        0x000000f6:    46ab        .F      MOV      r11,r5
        0x000000f8:    4333        3C      ORRS     r3,r3,r6
        0x000000fa:    4718        .G      BX       r3
    $d
        0x000000fc:    00004150    PA..    DCD    16720
        0x00000100:    00004170    pA..    DCD    16752
    $t
    !!handler_copy
    __scatterload_copy
        0x00000104:    3a10        .:      SUBS     r2,r2,#0x10
        0x00000106:    d302        ..      BCC      0x10e ; __scatterload_copy + 10
        0x00000108:    c878        x.      LDM      r0!,{r3-r6}
        0x0000010a:    c178        x.      STM      r1!,{r3-r6}
        0x0000010c:    d8fa        ..      BHI      __scatterload_copy ; 0x104
        0x0000010e:    0752        R.      LSLS     r2,r2,#29
        0x00000110:    d301        ..      BCC      0x116 ; __scatterload_copy + 18
        0x00000112:    c830        0.      LDM      r0!,{r4,r5}
        0x00000114:    c130        0.      STM      r1!,{r4,r5}
        0x00000116:    d501        ..      BPL      0x11c ; __scatterload_copy + 24
        0x00000118:    6804        .h      LDR      r4,[r0,#0]
        0x0000011a:    600c        .`      STR      r4,[r1,#0]
        0x0000011c:    4770        pG      BX       lr
        0x0000011e:    0000        ..      MOVS     r0,r0
    !!handler_zi
    __scatterload_zeroinit
        0x00000120:    2300        .#      MOVS     r3,#0
        0x00000122:    2400        .$      MOVS     r4,#0
        0x00000124:    2500        .%      MOVS     r5,#0
        0x00000126:    2600        .&      MOVS     r6,#0
        0x00000128:    3a10        .:      SUBS     r2,r2,#0x10
        0x0000012a:    d301        ..      BCC      0x130 ; __scatterload_zeroinit + 16
        0x0000012c:    c178        x.      STM      r1!,{r3-r6}
        0x0000012e:    d8fb        ..      BHI      0x128 ; __scatterload_zeroinit + 8
        0x00000130:    0752        R.      LSLS     r2,r2,#29
        0x00000132:    d300        ..      BCC      0x136 ; __scatterload_zeroinit + 22
        0x00000134:    c130        0.      STM      r1!,{r4,r5}
        0x00000136:    d500        ..      BPL      0x13a ; __scatterload_zeroinit + 26
        0x00000138:    600b        .`      STR      r3,[r1,#0]
        0x0000013a:    4770        pG      BX       lr
    .ARM.Collect$$_printf_percent$$00000000
    _printf_percent
        0x0000013c:    b510        ..      PUSH     {r4,lr}
    .ARM.Collect$$_printf_percent$$00000003
    _printf_f
        0x0000013e:    2966        f)      CMP      r1,#0x66
        0x00000140:    d102        ..      BNE      _printf_d ; 0x148
        0x00000142:    f003ff7f    ....    BL       _printf_fp_dec ; 0x4044
        0x00000146:    bd10        ..      POP      {r4,pc}
    .ARM.Collect$$_printf_percent$$00000009
    _printf_d
        0x00000148:    2964        d)      CMP      r1,#0x64
        0x0000014a:    d102        ..      BNE      _printf_percent_end ; 0x152
        0x0000014c:    f001fdb8    ....    BL       _printf_int_dec ; 0x1cc0
        0x00000150:    bd10        ..      POP      {r4,pc}
    .ARM.Collect$$_printf_percent$$00000017
    _printf_percent_end
        0x00000152:    2000        .       MOVS     r0,#0
        0x00000154:    bd10        ..      POP      {r4,pc}
    .ARM.Collect$$libinit$$00000000
    __rt_lib_init
        0x00000156:    b51f        ..      PUSH     {r0-r4,lr}
    .ARM.Collect$$libinit$$00000001
    __rt_lib_init_fp_1
        0x00000158:    46c0        .F      MOV      r8,r8
        0x0000015a:    46c0        .F      MOV      r8,r8
    .ARM.Collect$$libinit$$00000008
    .ARM.Collect$$libinit$$0000000A
    .ARM.Collect$$libinit$$0000000C
    .ARM.Collect$$libinit$$0000000D
    __rt_lib_init_heap_1
    __rt_lib_init_lc_common
    __rt_lib_init_rand_1
    __rt_lib_init_user_alloc_1
        0x0000015c:    f002ffea    ....    BL       __rt_locale ; 0x3134
        0x00000160:    0004        ..      MOVS     r4,r0
    .ARM.Collect$$libinit$$0000000F
    .ARM.Collect$$libinit$$00000011
    .ARM.Collect$$libinit$$00000013
    .ARM.Collect$$libinit$$00000014
    __rt_lib_init_lc_collate_1
    __rt_lib_init_lc_ctype_1
    __rt_lib_init_lc_monetary_1
    __rt_lib_init_lc_numeric_2
        0x00000162:    2000        .       MOVS     r0,#0
        0x00000164:    2100        .!      MOVS     r1,#0
        0x00000166:    f003fe51    ..Q.    BL       _get_lc_numeric ; 0x3e0c
        0x0000016a:    60e0        .`      STR      r0,[r4,#0xc]
    .ARM.Collect$$libinit$$00000015
    .ARM.Collect$$libinit$$00000017
    .ARM.Collect$$libinit$$00000019
    .ARM.Collect$$libinit$$0000001B
    .ARM.Collect$$libinit$$0000001D
    .ARM.Collect$$libinit$$0000001F
    .ARM.Collect$$libinit$$00000021
    .ARM.Collect$$libinit$$00000023
    .ARM.Collect$$libinit$$0000002A
    .ARM.Collect$$libinit$$0000002C
    .ARM.Collect$$libinit$$0000002E
    .ARM.Collect$$libinit$$00000030
    .ARM.Collect$$libinit$$00000031
    __rt_lib_init_alloca_1
    __rt_lib_init_argv_1
    __rt_lib_init_atexit_1
    __rt_lib_init_clock_1
    __rt_lib_init_cpp_1
    __rt_lib_init_exceptions_1
    __rt_lib_init_fp_trap_1
    __rt_lib_init_getenv_1
    __rt_lib_init_lc_numeric_1
    __rt_lib_init_lc_time_1
    __rt_lib_init_return
    __rt_lib_init_signal_1
    __rt_lib_init_stdio_1
        0x0000016c:    bd1f        ..      POP      {r0-r4,pc}
    .ARM.Collect$$libshutdown$$00000000
    __rt_lib_shutdown
        0x0000016e:    b510        ..      PUSH     {r4,lr}
    .ARM.Collect$$libshutdown$$00000003
    .ARM.Collect$$libshutdown$$00000006
    .ARM.Collect$$libshutdown$$00000009
    .ARM.Collect$$libshutdown$$0000000B
    .ARM.Collect$$libshutdown$$0000000E
    .ARM.Collect$$libshutdown$$0000000F
    __rt_lib_shutdown_fp_trap_1
    __rt_lib_shutdown_heap_1
    __rt_lib_shutdown_return
    __rt_lib_shutdown_signal_1
    __rt_lib_shutdown_stdio_1
    __rt_lib_shutdown_user_alloc_1
        0x00000170:    bd10        ..      POP      {r4,pc}
    .ARM.Collect$$rtentry$$00000000
    .ARM.Collect$$rtentry$$00000002
    .ARM.Collect$$rtentry$$00000004
    __rt_entry
    __rt_entry_presh_1
    __rt_entry_sh
        0x00000172:    f003fb69    ..i.    BL       __user_setup_stackheap ; 0x3848
        0x00000176:    4611        .F      MOV      r1,r2
    .ARM.Collect$$rtentry$$00000009
    .ARM.Collect$$rtentry$$0000000A
    __rt_entry_li
    __rt_entry_postsh_1
        0x00000178:    f7ffffed    ....    BL       __rt_lib_init ; 0x156
    .ARM.Collect$$rtentry$$0000000C
    .ARM.Collect$$rtentry$$0000000D
    __rt_entry_main
    __rt_entry_postli_1
        0x0000017c:    f000f808    ....    BL       main ; 0x190
        0x00000180:    f003fb81    ....    BL       exit ; 0x3886
    .ARM.Collect$$rtexit$$00000000
    __rt_exit
        0x00000184:    b403        ..      PUSH     {r0,r1}
    .ARM.Collect$$rtexit$$00000002
    .ARM.Collect$$rtexit$$00000003
    __rt_exit_ls
    __rt_exit_prels_1
        0x00000186:    f7fffff2    ....    BL       __rt_lib_shutdown ; 0x16e
    .ARM.Collect$$rtexit$$00000004
    __rt_exit_exit
        0x0000018a:    bc03        ..      POP      {r0,r1}
        0x0000018c:    f003fbc6    ....    BL       _sys_exit ; 0x391c
    .text
    main
        0x00000190:    f000fc52    ..R.    BL       Init_System_Clocks_PLL ; 0xa38
        0x00000194:    20e1        .       MOVS     r0,#0xe1
        0x00000196:    0240        @.      LSLS     r0,r0,#9
        0x00000198:    f001fbf0    ....    BL       Init_Uart0 ; 0x197c
        0x0000019c:    f000fb58    ..X.    BL       Init_SPI ; 0x850
        0x000001a0:    f000f9c4    ....    BL       Init_Digital_IMU ; 0x52c
        0x000001a4:    2106        .!      MOVS     r1,#6
        0x000001a6:    2003        .       MOVS     r0,#3
        0x000001a8:    f001f94c    ..L.    BL       Init_GPIO_Output ; 0x1444
        0x000001ac:    f001fb44    ..D.    BL       Init_Timer2_ISR ; 0x1838
        0x000001b0:    2000        .       MOVS     r0,#0
        0x000001b2:    f000ff45    ..E.    BL       Init_PWM ; 0x1040
        0x000001b6:    2001        .       MOVS     r0,#1
        0x000001b8:    f000ff42    ..B.    BL       Init_PWM ; 0x1040
        0x000001bc:    2002        .       MOVS     r0,#2
        0x000001be:    f000ff3f    ..?.    BL       Init_PWM ; 0x1040
        0x000001c2:    2003        .       MOVS     r0,#3
        0x000001c4:    f000ff3c    ..<.    BL       Init_PWM ; 0x1040
        0x000001c8:    2004        .       MOVS     r0,#4
        0x000001ca:    f000ff39    ..9.    BL       Init_PWM ; 0x1040
        0x000001ce:    2005        .       MOVS     r0,#5
        0x000001d0:    f000ff36    ..6.    BL       Init_PWM ; 0x1040
        0x000001d4:    2000        .       MOVS     r0,#0
        0x000001d6:    f000fc7b    ..{.    BL       Init_ADC ; 0xad0
        0x000001da:    2001        .       MOVS     r0,#1
        0x000001dc:    f000fc78    ..x.    BL       Init_ADC ; 0xad0
        0x000001e0:    2005        .       MOVS     r0,#5
        0x000001e2:    f000fc75    ..u.    BL       Init_ADC ; 0xad0
        0x000001e6:    2006        .       MOVS     r0,#6
        0x000001e8:    f000fc72    ..r.    BL       Init_ADC ; 0xad0
        0x000001ec:    a046        F.      ADR      r0,{pc}+0x11c ; 0x308
        0x000001ee:    f001fd59    ..Y.    BL       __2printf ; 0x1ca4
        0x000001f2:    e009        ..      B        0x208 ; main + 120
        0x000001f4:    4851        QH      LDR      r0,[pc,#324] ; [0x33c] = 0x20000008
        0x000001f6:    6800        .h      LDR      r0,[r0,#0]
        0x000001f8:    1c40        @.      ADDS     r0,r0,#1
        0x000001fa:    4950        PI      LDR      r1,[pc,#320] ; [0x33c] = 0x20000008
        0x000001fc:    6008        .`      STR      r0,[r1,#0]
        0x000001fe:    4608        .F      MOV      r0,r1
        0x00000200:    6801        .h      LDR      r1,[r0,#0]
        0x00000202:    a04f        O.      ADR      r0,{pc}+0x13e ; 0x340
        0x00000204:    f001fd4e    ..N.    BL       __2printf ; 0x1ca4
        0x00000208:    e7f4        ..      B        0x1f4 ; main + 100
    TMR2_IRQHandler
        0x0000020a:    b570        p.      PUSH     {r4-r6,lr}
        0x0000020c:    484d        MH      LDR      r0,[pc,#308] ; [0x344] = 0x40110000
        0x0000020e:    6880        .h      LDR      r0,[r0,#8]
        0x00000210:    2101        .!      MOVS     r1,#1
        0x00000212:    4308        .C      ORRS     r0,r0,r1
        0x00000214:    494b        KI      LDR      r1,[pc,#300] ; [0x344] = 0x40110000
        0x00000216:    6088        .`      STR      r0,[r1,#8]
        0x00000218:    484b        KH      LDR      r0,[pc,#300] ; [0x348] = 0x20000004
        0x0000021a:    6800        .h      LDR      r0,[r0,#0]
        0x0000021c:    1c40        @.      ADDS     r0,r0,#1
        0x0000021e:    494a        JI      LDR      r1,[pc,#296] ; [0x348] = 0x20000004
        0x00000220:    6008        .`      STR      r0,[r1,#0]
        0x00000222:    4608        .F      MOV      r0,r1
        0x00000224:    6801        .h      LDR      r1,[r0,#0]
        0x00000226:    a049        I.      ADR      r0,{pc}+0x126 ; 0x34c
        0x00000228:    f001fd3c    ..<.    BL       __2printf ; 0x1ca4
        0x0000022c:    f000fa13    ....    BL       IMU_Update ; 0x656
        0x00000230:    f000fa72    ..r.    BL       get_acc_theta ; 0x718
        0x00000234:    4606        .F      MOV      r6,r0
        0x00000236:    f002fbe7    ....    BL       __aeabi_f2d ; 0x2a08
        0x0000023a:    4604        .F      MOV      r4,r0
        0x0000023c:    4622        "F      MOV      r2,r4
        0x0000023e:    460b        .F      MOV      r3,r1
        0x00000240:    a048        H.      ADR      r0,{pc}+0x124 ; 0x364
        0x00000242:    f001fd2f    ../.    BL       __2printf ; 0x1ca4
        0x00000246:    f000fa6a    ..j.    BL       get_gyro_thetad ; 0x71e
        0x0000024a:    4606        .F      MOV      r6,r0
        0x0000024c:    f002fbdc    ....    BL       __aeabi_f2d ; 0x2a08
        0x00000250:    4604        .F      MOV      r4,r0
        0x00000252:    4622        "F      MOV      r2,r4
        0x00000254:    460b        .F      MOV      r3,r1
        0x00000256:    a044        D.      ADR      r0,{pc}+0x112 ; 0x368
        0x00000258:    f001fd24    ..$.    BL       __2printf ; 0x1ca4
        0x0000025c:    21ff        .!      MOVS     r1,#0xff
        0x0000025e:    3101        .1      ADDS     r1,#1
        0x00000260:    2000        .       MOVS     r0,#0
        0x00000262:    f001f8ad    ....    BL       PWM_Write ; 0x13c0
        0x00000266:    21ff        .!      MOVS     r1,#0xff
        0x00000268:    3101        .1      ADDS     r1,#1
        0x0000026a:    2001        .       MOVS     r0,#1
        0x0000026c:    f001f8a8    ....    BL       PWM_Write ; 0x13c0
        0x00000270:    21ff        .!      MOVS     r1,#0xff
        0x00000272:    3101        .1      ADDS     r1,#1
        0x00000274:    2002        .       MOVS     r0,#2
        0x00000276:    f001f8a3    ....    BL       PWM_Write ; 0x13c0
        0x0000027a:    21ff        .!      MOVS     r1,#0xff
        0x0000027c:    3101        .1      ADDS     r1,#1
        0x0000027e:    2003        .       MOVS     r0,#3
        0x00000280:    f001f89e    ....    BL       PWM_Write ; 0x13c0
        0x00000284:    21ff        .!      MOVS     r1,#0xff
        0x00000286:    3101        .1      ADDS     r1,#1
        0x00000288:    2004        .       MOVS     r0,#4
        0x0000028a:    f001f899    ....    BL       PWM_Write ; 0x13c0
        0x0000028e:    21ff        .!      MOVS     r1,#0xff
        0x00000290:    3101        .1      ADDS     r1,#1
        0x00000292:    2005        .       MOVS     r0,#5
        0x00000294:    f001f894    ....    BL       PWM_Write ; 0x13c0
        0x00000298:    f000fe04    ....    BL       UpdateAnalogRead ; 0xea4
        0x0000029c:    2000        .       MOVS     r0,#0
        0x0000029e:    f000fe77    ..w.    BL       analogRead ; 0xf90
        0x000002a2:    4932        2I      LDR      r1,[pc,#200] ; [0x36c] = 0x2000000c
        0x000002a4:    6008        .`      STR      r0,[r1,#0]
        0x000002a6:    2001        .       MOVS     r0,#1
        0x000002a8:    f000fe72    ..r.    BL       analogRead ; 0xf90
        0x000002ac:    4930        0I      LDR      r1,[pc,#192] ; [0x370] = 0x20000010
        0x000002ae:    6008        .`      STR      r0,[r1,#0]
        0x000002b0:    2005        .       MOVS     r0,#5
        0x000002b2:    f000fe6d    ..m.    BL       analogRead ; 0xf90
        0x000002b6:    492f        /I      LDR      r1,[pc,#188] ; [0x374] = 0x20000014
        0x000002b8:    6008        .`      STR      r0,[r1,#0]
        0x000002ba:    2006        .       MOVS     r0,#6
        0x000002bc:    f000fe68    ..h.    BL       analogRead ; 0xf90
        0x000002c0:    492d        -I      LDR      r1,[pc,#180] ; [0x378] = 0x20000018
        0x000002c2:    6008        .`      STR      r0,[r1,#0]
        0x000002c4:    482d        -H      LDR      r0,[pc,#180] ; [0x37c] = 0x20000000
        0x000002c6:    6800        .h      LDR      r0,[r0,#0]
        0x000002c8:    2800        .(      CMP      r0,#0
        0x000002ca:    d108        ..      BNE      0x2de ; TMR2_IRQHandler + 212
        0x000002cc:    2200        ."      MOVS     r2,#0
        0x000002ce:    2106        .!      MOVS     r1,#6
        0x000002d0:    2003        .       MOVS     r0,#3
        0x000002d2:    f001f98d    ....    BL       digitalWrite ; 0x15f0
        0x000002d6:    2001        .       MOVS     r0,#1
        0x000002d8:    4928        (I      LDR      r1,[pc,#160] ; [0x37c] = 0x20000000
        0x000002da:    6008        .`      STR      r0,[r1,#0]
        0x000002dc:    e00f        ..      B        0x2fe ; TMR2_IRQHandler + 244
        0x000002de:    4827        'H      LDR      r0,[pc,#156] ; [0x37c] = 0x20000000
        0x000002e0:    6800        .h      LDR      r0,[r0,#0]
        0x000002e2:    2801        .(      CMP      r0,#1
        0x000002e4:    d108        ..      BNE      0x2f8 ; TMR2_IRQHandler + 238
        0x000002e6:    2201        ."      MOVS     r2,#1
        0x000002e8:    2106        .!      MOVS     r1,#6
        0x000002ea:    2003        .       MOVS     r0,#3
        0x000002ec:    f001f980    ....    BL       digitalWrite ; 0x15f0
        0x000002f0:    2000        .       MOVS     r0,#0
        0x000002f2:    4922        "I      LDR      r1,[pc,#136] ; [0x37c] = 0x20000000
        0x000002f4:    6008        .`      STR      r0,[r1,#0]
        0x000002f6:    e002        ..      B        0x2fe ; TMR2_IRQHandler + 244
        0x000002f8:    a021        !.      ADR      r0,{pc}+0x88 ; 0x380
        0x000002fa:    f001fcd3    ....    BL       __2printf ; 0x1ca4
        0x000002fe:    2000        .       MOVS     r0,#0
        0x00000300:    490e        .I      LDR      r1,[pc,#56] ; [0x33c] = 0x20000008
        0x00000302:    6008        .`      STR      r0,[r1,#0]
        0x00000304:    bd70        p.      POP      {r4-r6,pc}
    $d
        0x00000306:    0000        ..      DCW    0
        0x00000308:    75746553    Setu    DCD    1970562387
        0x0000030c:    6e612070    p an    DCD    1851859056
        0x00000310:    6f432064    d Co    DCD    1866670180
        0x00000314:    6769666e    nfig    DCD    1734960750
        0x00000318:    74617275    urat    DCD    1952543349
        0x0000031c:    206e6f69    ion     DCD    544108393
        0x00000320:    706d6f43    Comp    DCD    1886220099
        0x00000324:    6574656c    lete    DCD    1702126956
        0x00000328:    65422021    ! Be    DCD    1698832417
        0x0000032c:    206e6967    gin     DCD    544106855
        0x00000330:    64616552    Read    DCD    1684104530
        0x00000334:    73676e69    ings    DCD    1936158313
        0x00000338:    0000000a    ....    DCD    10
        0x0000033c:    20000008    ...     DCD    536870920
        0x00000340:    000a6425    %d..    DCD    680997
        0x00000344:    40110000    ...@    DCD    1074855936
        0x00000348:    20000004    ...     DCD    536870916
        0x0000034c:    32525349    ISR2    DCD    844256073
        0x00000350:    6f6f4c20     Loo    DCD    1869564960
        0x00000354:    6f432070    p Co    DCD    1866670192
        0x00000358:    3a746e75    unt:    DCD    980708981
        0x0000035c:    09642520     %d.    DCD    157558048
        0x00000360:    00000000    ....    DCD    0
        0x00000364:    00096625    %f..    DCD    615973
        0x00000368:    000a6625    %f..    DCD    681509
        0x0000036c:    2000000c    ...     DCD    536870924
        0x00000370:    20000010    ...     DCD    536870928
        0x00000374:    20000014    ...     DCD    536870932
        0x00000378:    20000018    ...     DCD    536870936
        0x0000037c:    20000000    ...     DCD    536870912
        0x00000380:    5252450a    .ERR    DCD    1381123338
        0x00000384:    2121524f    OR!!    DCD    555831887
        0x00000388:    000a2121    !!..    DCD    663841
    $t
    .text
    Un_Lock_Reg
        0x0000038c:    2059        Y       MOVS     r0,#0x59
        0x0000038e:    4915        .I      LDR      r1,[pc,#84] ; [0x3e4] = 0x50000100
        0x00000390:    6008        .`      STR      r0,[r1,#0]
        0x00000392:    2016        .       MOVS     r0,#0x16
        0x00000394:    6008        .`      STR      r0,[r1,#0]
        0x00000396:    2088        .       MOVS     r0,#0x88
        0x00000398:    6008        .`      STR      r0,[r1,#0]
        0x0000039a:    4770        pG      BX       lr
    Lock_Reg
        0x0000039c:    2000        .       MOVS     r0,#0
        0x0000039e:    4911        .I      LDR      r1,[pc,#68] ; [0x3e4] = 0x50000100
        0x000003a0:    6008        .`      STR      r0,[r1,#0]
        0x000003a2:    4770        pG      BX       lr
    PLL_Enable
        0x000003a4:    4810        .H      LDR      r0,[pc,#64] ; [0x3e8] = 0x50000200
        0x000003a6:    6a00        .j      LDR      r0,[r0,#0x20]
        0x000003a8:    2105        .!      MOVS     r1,#5
        0x000003aa:    0409        ..      LSLS     r1,r1,#16
        0x000003ac:    4388        .C      BICS     r0,r0,r1
        0x000003ae:    490e        .I      LDR      r1,[pc,#56] ; [0x3e8] = 0x50000200
        0x000003b0:    6208        .b      STR      r0,[r1,#0x20]
        0x000003b2:    4770        pG      BX       lr
    Short_Delay
        0x000003b4:    2000        .       MOVS     r0,#0
        0x000003b6:    e002        ..      B        0x3be ; Short_Delay + 10
        0x000003b8:    1c4a        J.      ADDS     r2,r1,#1
        0x000003ba:    b2d1        ..      UXTB     r1,r2
        0x000003bc:    1c40        @.      ADDS     r0,r0,#1
        0x000003be:    4a0b        .J      LDR      r2,[pc,#44] ; [0x3ec] = 0xfff
        0x000003c0:    4290        .B      CMP      r0,r2
        0x000003c2:    d3f9        ..      BCC      0x3b8 ; Short_Delay + 4
        0x000003c4:    4770        pG      BX       lr
    NSR_Enable
        0x000003c6:    b500        ..      PUSH     {lr}
        0x000003c8:    f7ffffe0    ....    BL       Un_Lock_Reg ; 0x38c
        0x000003cc:    4808        .H      LDR      r0,[pc,#32] ; [0x3f0] = 0x5aa5
        0x000003ce:    0701        ..      LSLS     r1,r0,#28
        0x000003d0:    6248        Hb      STR      r0,[r1,#0x24]
        0x000003d2:    bd00        ..      POP      {pc}
    NSR_Disable
        0x000003d4:    b500        ..      PUSH     {lr}
        0x000003d6:    f7ffffd9    ....    BL       Un_Lock_Reg ; 0x38c
        0x000003da:    2000        .       MOVS     r0,#0
        0x000003dc:    2105        .!      MOVS     r1,#5
        0x000003de:    0709        ..      LSLS     r1,r1,#28
        0x000003e0:    6248        Hb      STR      r0,[r1,#0x24]
        0x000003e2:    bd00        ..      POP      {pc}
    $d
        0x000003e4:    50000100    ...P    DCD    1342177536
        0x000003e8:    50000200    ...P    DCD    1342177792
        0x000003ec:    00000fff    ....    DCD    4095
        0x000003f0:    00005aa5    .Z..    DCD    23205
    $t
    .text
    SendChar
        0x000003f4:    bf00        ..      NOP      
        0x000003f6:    491c        .I      LDR      r1,[pc,#112] ; [0x468] = 0x40050000
        0x000003f8:    6989        .i      LDR      r1,[r1,#0x18]
        0x000003fa:    2201        ."      MOVS     r2,#1
        0x000003fc:    0592        ..      LSLS     r2,r2,#22
        0x000003fe:    4211        .B      TST      r1,r2
        0x00000400:    d0f9        ..      BEQ      0x3f6 ; SendChar + 2
        0x00000402:    4919        .I      LDR      r1,[pc,#100] ; [0x468] = 0x40050000
        0x00000404:    6008        .`      STR      r0,[r1,#0]
        0x00000406:    280a        .(      CMP      r0,#0xa
        0x00000408:    d109        ..      BNE      0x41e ; SendChar + 42
        0x0000040a:    bf00        ..      NOP      
        0x0000040c:    4916        .I      LDR      r1,[pc,#88] ; [0x468] = 0x40050000
        0x0000040e:    6989        .i      LDR      r1,[r1,#0x18]
        0x00000410:    2201        ."      MOVS     r2,#1
        0x00000412:    0592        ..      LSLS     r2,r2,#22
        0x00000414:    4211        .B      TST      r1,r2
        0x00000416:    d0f9        ..      BEQ      0x40c ; SendChar + 24
        0x00000418:    210d        .!      MOVS     r1,#0xd
        0x0000041a:    4a13        .J      LDR      r2,[pc,#76] ; [0x468] = 0x40050000
        0x0000041c:    6011        .`      STR      r1,[r2,#0]
        0x0000041e:    4770        pG      BX       lr
    GetCharPU20
        0x00000420:    e009        ..      B        0x436 ; GetCharPU20 + 22
        0x00000422:    4811        .H      LDR      r0,[pc,#68] ; [0x468] = 0x40050000
        0x00000424:    6980        .i      LDR      r0,[r0,#0x18]
        0x00000426:    2101        .!      MOVS     r1,#1
        0x00000428:    0389        ..      LSLS     r1,r1,#14
        0x0000042a:    4208        .B      TST      r0,r1
        0x0000042c:    d103        ..      BNE      0x436 ; GetCharPU20 + 22
        0x0000042e:    480e        .H      LDR      r0,[pc,#56] ; [0x468] = 0x40050000
        0x00000430:    6800        .h      LDR      r0,[r0,#0]
        0x00000432:    b2c0        ..      UXTB     r0,r0
        0x00000434:    4770        pG      BX       lr
        0x00000436:    e7f4        ..      B        0x422 ; GetCharPU20 + 2
    _ttywrch
        0x00000438:    b500        ..      PUSH     {lr}
        0x0000043a:    4603        .F      MOV      r3,r0
        0x0000043c:    4618        .F      MOV      r0,r3
        0x0000043e:    f7ffffd9    ....    BL       SendChar ; 0x3f4
        0x00000442:    bd00        ..      POP      {pc}
    fputc
        0x00000444:    b510        ..      PUSH     {r4,lr}
        0x00000446:    4603        .F      MOV      r3,r0
        0x00000448:    460c        .F      MOV      r4,r1
        0x0000044a:    4618        .F      MOV      r0,r3
        0x0000044c:    f7ffffd2    ....    BL       SendChar ; 0x3f4
        0x00000450:    2000        .       MOVS     r0,#0
        0x00000452:    bd10        ..      POP      {r4,pc}
    fgetc
        0x00000454:    b500        ..      PUSH     {lr}
        0x00000456:    4602        .F      MOV      r2,r0
        0x00000458:    f7ffffe2    ....    BL       GetCharPU20 ; 0x420
        0x0000045c:    bd00        ..      POP      {pc}
    ferror
        0x0000045e:    4601        .F      MOV      r1,r0
        0x00000460:    2000        .       MOVS     r0,#0
        0x00000462:    43c0        .C      MVNS     r0,r0
        0x00000464:    4770        pG      BX       lr
    $d
        0x00000466:    0000        ..      DCW    0
        0x00000468:    40050000    ...@    DCD    1074069504
    $t
    .text
    Reset_Handler
        0x0000046c:    480d        .H      LDR      r0,[pc,#52] ; [0x4a4] = 0x50000100
        0x0000046e:    6901        .i      LDR      r1,[r0,#0x10]
        0x00000470:    293f        ?)      CMP      r1,#0x3f
        0x00000472:    d109        ..      BNE      0x488 ; Reset_Handler + 28
        0x00000474:    490c        .I      LDR      r1,[pc,#48] ; [0x4a8] = 0x59
        0x00000476:    6001        .`      STR      r1,[r0,#0]
        0x00000478:    490c        .I      LDR      r1,[pc,#48] ; [0x4ac] = 0x16
        0x0000047a:    6001        .`      STR      r1,[r0,#0]
        0x0000047c:    490c        .I      LDR      r1,[pc,#48] ; [0x4b0] = 0x88
        0x0000047e:    6001        .`      STR      r1,[r0,#0]
        0x00000480:    490c        .I      LDR      r1,[pc,#48] ; [0x4b4] = 0x20
        0x00000482:    6101        .a      STR      r1,[r0,#0x10]
        0x00000484:    2100        .!      MOVS     r1,#0
        0x00000486:    6001        .`      STR      r1,[r0,#0]
        0x00000488:    480b        .H      LDR      r0,[pc,#44] ; [0x4b8] = 0xc1
        0x0000048a:    4700        .G      BX       r0
    NMI_Handler
        0x0000048c:    e7fe        ..      B        NMI_Handler ; 0x48c
    HardFault_Handler
        0x0000048e:    e7fe        ..      B        HardFault_Handler ; 0x48e
    SVC_Handler
        0x00000490:    e7fe        ..      B        SVC_Handler ; 0x490
    PendSV_Handler
        0x00000492:    e7fe        ..      B        PendSV_Handler ; 0x492
    SysTick_Handler
        0x00000494:    e7fe        ..      B        SysTick_Handler ; 0x494
    Default_Handler
    ADC_IRQHandler
    BOD_IRQHandler
    EINT0_IRQHandler
    EINT1_IRQHandler
    GPIOP0P1_IRQHandler
    GPIOP2P3P4_IRQHandler
    I2C_IRQHandler
    PWMA_IRQHandler
    PWMB_IRQHandler
    PWRWU_IRQHandler
    SPI0_IRQHandler
    SPI1_IRQHandler
    TMR0_IRQHandler
    TMR1_IRQHandler
    TMR3_IRQHandler
    WDT_IRQHandler
        0x00000496:    e7fe        ..      B        Default_Handler ; 0x496
    __user_initial_stackheap
        0x00000498:    4808        .H      LDR      r0,[pc,#32] ; [0x4bc] = 0x20000108
        0x0000049a:    4909        .I      LDR      r1,[pc,#36] ; [0x4c0] = 0x20000508
        0x0000049c:    4a07        .J      LDR      r2,[pc,#28] ; [0x4bc] = 0x20000108
        0x0000049e:    4b09        .K      LDR      r3,[pc,#36] ; [0x4c4] = 0x20000108
        0x000004a0:    4770        pG      BX       lr
    $d
        0x000004a2:    0000        ..      DCW    0
        0x000004a4:    50000100    ...P    DCD    1342177536
        0x000004a8:    00000059    Y...    DCD    89
        0x000004ac:    00000016    ....    DCD    22
        0x000004b0:    00000088    ....    DCD    136
        0x000004b4:    00000020     ...    DCD    32
        0x000004b8:    000000c1    ....    DCD    193
        0x000004bc:    20000108    ...     DCD    536871176
        0x000004c0:    20000508    ...     DCD    536872200
        0x000004c4:    20000108    ...     DCD    536871176
    $t
    .text
    ConfigureMIPIMU
        0x000004c8:    b510        ..      PUSH     {r4,lr}
        0x000004ca:    48ab        .H      LDR      r0,[pc,#684] ; [0x778] = 0x6a10
        0x000004cc:    f000fa52    ..R.    BL       SPI_WriteAndWait ; 0x974
        0x000004d0:    48aa        .H      LDR      r0,[pc,#680] ; [0x77c] = 0x1907
        0x000004d2:    f000fa4f    ..O.    BL       SPI_WriteAndWait ; 0x974
        0x000004d6:    200d        .       MOVS     r0,#0xd
        0x000004d8:    0240        @.      LSLS     r0,r0,#9
        0x000004da:    f000fa4b    ..K.    BL       SPI_WriteAndWait ; 0x974
        0x000004de:    48a8        .H      LDR      r0,[pc,#672] ; [0x780] = 0x1b10
        0x000004e0:    f000fa48    ..H.    BL       SPI_WriteAndWait ; 0x974
        0x000004e4:    2007        .       MOVS     r0,#7
        0x000004e6:    0280        ..      LSLS     r0,r0,#10
        0x000004e8:    f000fa44    ..D.    BL       SPI_WriteAndWait ; 0x974
        0x000004ec:    48a5        .H      LDR      r0,[pc,#660] ; [0x784] = 0x1d0c
        0x000004ee:    f000fa41    ..A.    BL       SPI_WriteAndWait ; 0x974
        0x000004f2:    200f        .       MOVS     r0,#0xf
        0x000004f4:    0240        @.      LSLS     r0,r0,#9
        0x000004f6:    f000fa3d    ..=.    BL       SPI_WriteAndWait ; 0x974
        0x000004fa:    201f        .       MOVS     r0,#0x1f
        0x000004fc:    0200        ..      LSLS     r0,r0,#8
        0x000004fe:    f000fa39    ..9.    BL       SPI_WriteAndWait ; 0x974
        0x00000502:    2023        #       MOVS     r0,#0x23
        0x00000504:    0200        ..      LSLS     r0,r0,#8
        0x00000506:    f000fa35    ..5.    BL       SPI_WriteAndWait ; 0x974
        0x0000050a:    2007        .       MOVS     r0,#7
        0x0000050c:    02c0        ..      LSLS     r0,r0,#11
        0x0000050e:    f000fa31    ..1.    BL       SPI_WriteAndWait ; 0x974
        0x00000512:    4899        .H      LDR      r0,[pc,#612] ; [0x778] = 0x6a10
        0x00000514:    30f1        .0      ADDS     r0,r0,#0xf1
        0x00000516:    f000fa2d    ..-.    BL       SPI_WriteAndWait ; 0x974
        0x0000051a:    201b        .       MOVS     r0,#0x1b
        0x0000051c:    0280        ..      LSLS     r0,r0,#10
        0x0000051e:    f000fa29    ..).    BL       SPI_WriteAndWait ; 0x974
        0x00000522:    20c1        .       MOVS     r0,#0xc1
        0x00000524:    0200        ..      LSLS     r0,r0,#8
        0x00000526:    f000fa25    ..%.    BL       SPI_WriteAndWait ; 0x974
        0x0000052a:    bd10        ..      POP      {r4,pc}
    Init_Digital_IMU
        0x0000052c:    b5f0        ..      PUSH     {r4-r7,lr}
        0x0000052e:    b08b        ..      SUB      sp,sp,#0x2c
        0x00000530:    2400        .$      MOVS     r4,#0
        0x00000532:    2500        .%      MOVS     r5,#0
        0x00000534:    2600        .&      MOVS     r6,#0
        0x00000536:    f000f98b    ....    BL       Init_SPI ; 0x850
        0x0000053a:    f7ffffc5    ....    BL       ConfigureMIPIMU ; 0x4c8
        0x0000053e:    2700        .'      MOVS     r7,#0
        0x00000540:    e035        5.      B        0x5ae ; Init_Digital_IMU + 130
        0x00000542:    2200        ."      MOVS     r2,#0
        0x00000544:    21bb        .!      MOVS     r1,#0xbb
        0x00000546:    0209        ..      LSLS     r1,r1,#8
        0x00000548:    202f        /       MOVS     r0,#0x2f
        0x0000054a:    0280        ..      LSLS     r0,r0,#10
        0x0000054c:    f000fa31    ..1.    BL       SPI_Sensor_Read ; 0x9b2
        0x00000550:    900a        ..      STR      r0,[sp,#0x28]
        0x00000552:    2200        ."      MOVS     r2,#0
        0x00000554:    21bf        .!      MOVS     r1,#0xbf
        0x00000556:    0209        ..      LSLS     r1,r1,#8
        0x00000558:    2003        .       MOVS     r0,#3
        0x0000055a:    0380        ..      LSLS     r0,r0,#14
        0x0000055c:    f000fa29    ..).    BL       SPI_Sensor_Read ; 0x9b2
        0x00000560:    9009        ..      STR      r0,[sp,#0x24]
        0x00000562:    2201        ."      MOVS     r2,#1
        0x00000564:    21c5        .!      MOVS     r1,#0xc5
        0x00000566:    0209        ..      LSLS     r1,r1,#8
        0x00000568:    2063        c       MOVS     r0,#0x63
        0x0000056a:    0240        @.      LSLS     r0,r0,#9
        0x0000056c:    f000fa21    ..!.    BL       SPI_Sensor_Read ; 0x9b2
        0x00000570:    9008        ..      STR      r0,[sp,#0x20]
        0x00000572:    4885        .H      LDR      r0,[pc,#532] ; [0x788] = 0xbf800000
        0x00000574:    990a        ..      LDR      r1,[sp,#0x28]
        0x00000576:    f003fca5    ....    BL       __aeabi_fmul ; 0x3ec4
        0x0000057a:    4621        !F      MOV      r1,r4
        0x0000057c:    9007        ..      STR      r0,[sp,#0x1c]
        0x0000057e:    f003fc5b    ..[.    BL       __aeabi_fadd ; 0x3e38
        0x00000582:    4604        .F      MOV      r4,r0
        0x00000584:    207f        .       MOVS     r0,#0x7f
        0x00000586:    05c0        ..      LSLS     r0,r0,#23
        0x00000588:    9909        ..      LDR      r1,[sp,#0x24]
        0x0000058a:    f003fc9b    ....    BL       __aeabi_fmul ; 0x3ec4
        0x0000058e:    4629        )F      MOV      r1,r5
        0x00000590:    9007        ..      STR      r0,[sp,#0x1c]
        0x00000592:    f003fc51    ..Q.    BL       __aeabi_fadd ; 0x3e38
        0x00000596:    4605        .F      MOV      r5,r0
        0x00000598:    207f        .       MOVS     r0,#0x7f
        0x0000059a:    05c0        ..      LSLS     r0,r0,#23
        0x0000059c:    9908        ..      LDR      r1,[sp,#0x20]
        0x0000059e:    f003fc91    ....    BL       __aeabi_fmul ; 0x3ec4
        0x000005a2:    4631        1F      MOV      r1,r6
        0x000005a4:    9007        ..      STR      r0,[sp,#0x1c]
        0x000005a6:    f003fc47    ..G.    BL       __aeabi_fadd ; 0x3e38
        0x000005aa:    4606        .F      MOV      r6,r0
        0x000005ac:    1c7f        ..      ADDS     r7,r7,#1
        0x000005ae:    2f0a        ./      CMP      r7,#0xa
        0x000005b0:    dbc7        ..      BLT      0x542 ; Init_Digital_IMU + 22
        0x000005b2:    4976        vI      LDR      r1,[pc,#472] ; [0x78c] = 0x41200000
        0x000005b4:    4620         F      MOV      r0,r4
        0x000005b6:    f002fa53    ..S.    BL       __aeabi_fdiv ; 0x2a60
        0x000005ba:    4975        uI      LDR      r1,[pc,#468] ; [0x790] = 0x20000024
        0x000005bc:    6008        .`      STR      r0,[r1,#0]
        0x000005be:    4973        sI      LDR      r1,[pc,#460] ; [0x78c] = 0x41200000
        0x000005c0:    4628        (F      MOV      r0,r5
        0x000005c2:    f002fa4d    ..M.    BL       __aeabi_fdiv ; 0x2a60
        0x000005c6:    4973        sI      LDR      r1,[pc,#460] ; [0x794] = 0x20000028
        0x000005c8:    6008        .`      STR      r0,[r1,#0]
        0x000005ca:    4970        pI      LDR      r1,[pc,#448] ; [0x78c] = 0x41200000
        0x000005cc:    4630        0F      MOV      r0,r6
        0x000005ce:    f002fa47    ..G.    BL       __aeabi_fdiv ; 0x2a60
        0x000005d2:    4971        qI      LDR      r1,[pc,#452] ; [0x798] = 0x2000002c
        0x000005d4:    6008        .`      STR      r0,[r1,#0]
        0x000005d6:    4608        .F      MOV      r0,r1
        0x000005d8:    6800        .h      LDR      r0,[r0,#0]
        0x000005da:    2101        .!      MOVS     r1,#1
        0x000005dc:    07c9        ..      LSLS     r1,r1,#31
        0x000005de:    4048        H@      EORS     r0,r0,r1
        0x000005e0:    496e        nI      LDR      r1,[pc,#440] ; [0x79c] = 0x20000030
        0x000005e2:    6008        .`      STR      r0,[r1,#0]
        0x000005e4:    486b        kH      LDR      r0,[pc,#428] ; [0x794] = 0x20000028
        0x000005e6:    6800        .h      LDR      r0,[r0,#0]
        0x000005e8:    f002fa0e    ....    BL       __aeabi_f2d ; 0x2a08
        0x000005ec:    9103        ..      STR      r1,[sp,#0xc]
        0x000005ee:    9002        ..      STR      r0,[sp,#8]
        0x000005f0:    4867        gH      LDR      r0,[pc,#412] ; [0x790] = 0x20000024
        0x000005f2:    6800        .h      LDR      r0,[r0,#0]
        0x000005f4:    f002fa08    ....    BL       __aeabi_f2d ; 0x2a08
        0x000005f8:    9101        ..      STR      r1,[sp,#4]
        0x000005fa:    9000        ..      STR      r0,[sp,#0]
        0x000005fc:    9b03        ..      LDR      r3,[sp,#0xc]
        0x000005fe:    9a02        ..      LDR      r2,[sp,#8]
        0x00000600:    f003fb48    ..H.    BL       atan2 ; 0x3c94
        0x00000604:    2200        ."      MOVS     r2,#0
        0x00000606:    4613        .F      MOV      r3,r2
        0x00000608:    9105        ..      STR      r1,[sp,#0x14]
        0x0000060a:    9004        ..      STR      r0,[sp,#0x10]
        0x0000060c:    f001fe7d    ..}.    BL       __aeabi_dadd ; 0x230a
        0x00000610:    9107        ..      STR      r1,[sp,#0x1c]
        0x00000612:    9006        ..      STR      r0,[sp,#0x18]
        0x00000614:    f001fcc2    ....    BL       __aeabi_d2f ; 0x1f9c
        0x00000618:    4961        aI      LDR      r1,[pc,#388] ; [0x7a0] = 0x20000034
        0x0000061a:    6008        .`      STR      r0,[r1,#0]
        0x0000061c:    485f        _H      LDR      r0,[pc,#380] ; [0x79c] = 0x20000030
        0x0000061e:    6801        .h      LDR      r1,[r0,#0]
        0x00000620:    485d        ]H      LDR      r0,[pc,#372] ; [0x798] = 0x2000002c
        0x00000622:    6800        .h      LDR      r0,[r0,#0]
        0x00000624:    f003fc08    ....    BL       __aeabi_fadd ; 0x3e38
        0x00000628:    9001        ..      STR      r0,[sp,#4]
        0x0000062a:    f002f9ed    ....    BL       __aeabi_f2d ; 0x2a08
        0x0000062e:    4a5d        ]J      LDR      r2,[pc,#372] ; [0x7a4] = 0xf01b866e
        0x00000630:    4b5d        ]K      LDR      r3,[pc,#372] ; [0x7a8] = 0x400921f9
        0x00000632:    9103        ..      STR      r1,[sp,#0xc]
        0x00000634:    9002        ..      STR      r0,[sp,#8]
        0x00000636:    f002f8bb    ....    BL       __aeabi_dmul ; 0x27b0
        0x0000063a:    2200        ."      MOVS     r2,#0
        0x0000063c:    4b5b        [K      LDR      r3,[pc,#364] ; [0x7ac] = 0x40668000
        0x0000063e:    9105        ..      STR      r1,[sp,#0x14]
        0x00000640:    9004        ..      STR      r0,[sp,#0x10]
        0x00000642:    f001fe8f    ....    BL       __aeabi_ddiv ; 0x2364
        0x00000646:    9107        ..      STR      r1,[sp,#0x1c]
        0x00000648:    9006        ..      STR      r0,[sp,#0x18]
        0x0000064a:    f001fca7    ....    BL       __aeabi_d2f ; 0x1f9c
        0x0000064e:    4958        XI      LDR      r1,[pc,#352] ; [0x7b0] = 0x20000038
        0x00000650:    6008        .`      STR      r0,[r1,#0]
        0x00000652:    b00b        ..      ADD      sp,sp,#0x2c
        0x00000654:    bdf0        ..      POP      {r4-r7,pc}
    IMU_Update
        0x00000656:    b5f0        ..      PUSH     {r4-r7,lr}
        0x00000658:    b085        ..      SUB      sp,sp,#0x14
        0x0000065a:    2200        ."      MOVS     r2,#0
        0x0000065c:    21bb        .!      MOVS     r1,#0xbb
        0x0000065e:    0209        ..      LSLS     r1,r1,#8
        0x00000660:    202f        /       MOVS     r0,#0x2f
        0x00000662:    0280        ..      LSLS     r0,r0,#10
        0x00000664:    f000f9a5    ....    BL       SPI_Sensor_Read ; 0x9b2
        0x00000668:    4604        .F      MOV      r4,r0
        0x0000066a:    4947        GI      LDR      r1,[pc,#284] ; [0x788] = 0xbf800000
        0x0000066c:    f003fc2a    ..*.    BL       __aeabi_fmul ; 0x3ec4
        0x00000670:    4947        GI      LDR      r1,[pc,#284] ; [0x790] = 0x20000024
        0x00000672:    6008        .`      STR      r0,[r1,#0]
        0x00000674:    2200        ."      MOVS     r2,#0
        0x00000676:    21bf        .!      MOVS     r1,#0xbf
        0x00000678:    0209        ..      LSLS     r1,r1,#8
        0x0000067a:    2003        .       MOVS     r0,#3
        0x0000067c:    0380        ..      LSLS     r0,r0,#14
        0x0000067e:    f000f998    ....    BL       SPI_Sensor_Read ; 0x9b2
        0x00000682:    4604        .F      MOV      r4,r0
        0x00000684:    217f        .!      MOVS     r1,#0x7f
        0x00000686:    05c9        ..      LSLS     r1,r1,#23
        0x00000688:    f003fc1c    ....    BL       __aeabi_fmul ; 0x3ec4
        0x0000068c:    4941        AI      LDR      r1,[pc,#260] ; [0x794] = 0x20000028
        0x0000068e:    6008        .`      STR      r0,[r1,#0]
        0x00000690:    2201        ."      MOVS     r2,#1
        0x00000692:    21c5        .!      MOVS     r1,#0xc5
        0x00000694:    0209        ..      LSLS     r1,r1,#8
        0x00000696:    2063        c       MOVS     r0,#0x63
        0x00000698:    0240        @.      LSLS     r0,r0,#9
        0x0000069a:    f000f98a    ....    BL       SPI_Sensor_Read ; 0x9b2
        0x0000069e:    4604        .F      MOV      r4,r0
        0x000006a0:    217f        .!      MOVS     r1,#0x7f
        0x000006a2:    05c9        ..      LSLS     r1,r1,#23
        0x000006a4:    f003fc0e    ....    BL       __aeabi_fmul ; 0x3ec4
        0x000006a8:    493b        ;I      LDR      r1,[pc,#236] ; [0x798] = 0x2000002c
        0x000006aa:    6008        .`      STR      r0,[r1,#0]
        0x000006ac:    4839        9H      LDR      r0,[pc,#228] ; [0x794] = 0x20000028
        0x000006ae:    6800        .h      LDR      r0,[r0,#0]
        0x000006b0:    f002f9aa    ....    BL       __aeabi_f2d ; 0x2a08
        0x000006b4:    4604        .F      MOV      r4,r0
        0x000006b6:    460d        .F      MOV      r5,r1
        0x000006b8:    4835        5H      LDR      r0,[pc,#212] ; [0x790] = 0x20000024
        0x000006ba:    6800        .h      LDR      r0,[r0,#0]
        0x000006bc:    f002f9a4    ....    BL       __aeabi_f2d ; 0x2a08
        0x000006c0:    4606        .F      MOV      r6,r0
        0x000006c2:    4622        "F      MOV      r2,r4
        0x000006c4:    462b        +F      MOV      r3,r5
        0x000006c6:    f003fae5    ....    BL       atan2 ; 0x3c94
        0x000006ca:    2200        ."      MOVS     r2,#0
        0x000006cc:    4613        .F      MOV      r3,r2
        0x000006ce:    9101        ..      STR      r1,[sp,#4]
        0x000006d0:    9000        ..      STR      r0,[sp,#0]
        0x000006d2:    f001fe1a    ....    BL       __aeabi_dadd ; 0x230a
        0x000006d6:    9103        ..      STR      r1,[sp,#0xc]
        0x000006d8:    9002        ..      STR      r0,[sp,#8]
        0x000006da:    f001fc5f    .._.    BL       __aeabi_d2f ; 0x1f9c
        0x000006de:    4930        0I      LDR      r1,[pc,#192] ; [0x7a0] = 0x20000034
        0x000006e0:    6008        .`      STR      r0,[r1,#0]
        0x000006e2:    482e        .H      LDR      r0,[pc,#184] ; [0x79c] = 0x20000030
        0x000006e4:    6801        .h      LDR      r1,[r0,#0]
        0x000006e6:    482c        ,H      LDR      r0,[pc,#176] ; [0x798] = 0x2000002c
        0x000006e8:    6800        .h      LDR      r0,[r0,#0]
        0x000006ea:    f003fba5    ....    BL       __aeabi_fadd ; 0x3e38
        0x000006ee:    9001        ..      STR      r0,[sp,#4]
        0x000006f0:    f002f98a    ....    BL       __aeabi_f2d ; 0x2a08
        0x000006f4:    4604        .F      MOV      r4,r0
        0x000006f6:    4a2b        +J      LDR      r2,[pc,#172] ; [0x7a4] = 0xf01b866e
        0x000006f8:    4b2b        +K      LDR      r3,[pc,#172] ; [0x7a8] = 0x400921f9
        0x000006fa:    f002f859    ..Y.    BL       __aeabi_dmul ; 0x27b0
        0x000006fe:    2200        ."      MOVS     r2,#0
        0x00000700:    4b2a        *K      LDR      r3,[pc,#168] ; [0x7ac] = 0x40668000
        0x00000702:    9103        ..      STR      r1,[sp,#0xc]
        0x00000704:    9002        ..      STR      r0,[sp,#8]
        0x00000706:    f001fe2d    ..-.    BL       __aeabi_ddiv ; 0x2364
        0x0000070a:    4606        .F      MOV      r6,r0
        0x0000070c:    f001fc46    ..F.    BL       __aeabi_d2f ; 0x1f9c
        0x00000710:    4927        'I      LDR      r1,[pc,#156] ; [0x7b0] = 0x20000038
        0x00000712:    6008        .`      STR      r0,[r1,#0]
        0x00000714:    b005        ..      ADD      sp,sp,#0x14
        0x00000716:    bdf0        ..      POP      {r4-r7,pc}
    get_acc_theta
        0x00000718:    4821        !H      LDR      r0,[pc,#132] ; [0x7a0] = 0x20000034
        0x0000071a:    6800        .h      LDR      r0,[r0,#0]
        0x0000071c:    4770        pG      BX       lr
    get_gyro_thetad
        0x0000071e:    4824        $H      LDR      r0,[pc,#144] ; [0x7b0] = 0x20000038
        0x00000720:    6800        .h      LDR      r0,[r0,#0]
        0x00000722:    4770        pG      BX       lr
    Outputs4Debugging_IMU
        0x00000724:    b5fe        ..      PUSH     {r1-r7,lr}
        0x00000726:    f7fffff7    ....    BL       get_acc_theta ; 0x718
        0x0000072a:    4922        "I      LDR      r1,[pc,#136] ; [0x7b4] = 0x43340000
        0x0000072c:    9000        ..      STR      r0,[sp,#0]
        0x0000072e:    f003fbc9    ....    BL       __aeabi_fmul ; 0x3ec4
        0x00000732:    9001        ..      STR      r0,[sp,#4]
        0x00000734:    f002f968    ..h.    BL       __aeabi_f2d ; 0x2a08
        0x00000738:    4606        .F      MOV      r6,r0
        0x0000073a:    4a1a        .J      LDR      r2,[pc,#104] ; [0x7a4] = 0xf01b866e
        0x0000073c:    4b1a        .K      LDR      r3,[pc,#104] ; [0x7a8] = 0x400921f9
        0x0000073e:    f001fe11    ....    BL       __aeabi_ddiv ; 0x2364
        0x00000742:    4604        .F      MOV      r4,r0
        0x00000744:    4622        "F      MOV      r2,r4
        0x00000746:    460b        .F      MOV      r3,r1
        0x00000748:    a01b        ..      ADR      r0,{pc}+0x70 ; 0x7b8
        0x0000074a:    f001faab    ....    BL       __2printf ; 0x1ca4
        0x0000074e:    f7ffffe6    ....    BL       get_gyro_thetad ; 0x71e
        0x00000752:    4918        .I      LDR      r1,[pc,#96] ; [0x7b4] = 0x43340000
        0x00000754:    9000        ..      STR      r0,[sp,#0]
        0x00000756:    f003fbb5    ....    BL       __aeabi_fmul ; 0x3ec4
        0x0000075a:    9001        ..      STR      r0,[sp,#4]
        0x0000075c:    f002f954    ..T.    BL       __aeabi_f2d ; 0x2a08
        0x00000760:    4604        .F      MOV      r4,r0
        0x00000762:    4a10        .J      LDR      r2,[pc,#64] ; [0x7a4] = 0xf01b866e
        0x00000764:    4b10        .K      LDR      r3,[pc,#64] ; [0x7a8] = 0x400921f9
        0x00000766:    f001fdfd    ....    BL       __aeabi_ddiv ; 0x2364
        0x0000076a:    4606        .F      MOV      r6,r0
        0x0000076c:    4632        2F      MOV      r2,r6
        0x0000076e:    460b        .F      MOV      r3,r1
        0x00000770:    a011        ..      ADR      r0,{pc}+0x48 ; 0x7b8
        0x00000772:    f001fa97    ....    BL       __2printf ; 0x1ca4
        0x00000776:    bdfe        ..      POP      {r1-r7,pc}
    $d
        0x00000778:    00006a10    .j..    DCD    27152
        0x0000077c:    00001907    ....    DCD    6407
        0x00000780:    00001b10    ....    DCD    6928
        0x00000784:    00001d0c    ....    DCD    7436
        0x00000788:    bf800000    ....    DCD    3212836864
        0x0000078c:    41200000    .. A    DCD    1092616192
        0x00000790:    20000024    $..     DCD    536870948
        0x00000794:    20000028    (..     DCD    536870952
        0x00000798:    2000002c    ,..     DCD    536870956
        0x0000079c:    20000030    0..     DCD    536870960
        0x000007a0:    20000034    4..     DCD    536870964
        0x000007a4:    f01b866e    n...    DCD    4028335726
        0x000007a8:    400921f9    .!.@    DCD    1074340345
        0x000007ac:    40668000    ..f@    DCD    1080459264
        0x000007b0:    20000038    8..     DCD    536870968
        0x000007b4:    43340000    ..4C    DCD    1127481344
        0x000007b8:    00096625    %f..    DCD    615973
    $t
    .text
    Timer0_Init
        0x000007bc:    489a        .H      LDR      r0,[pc,#616] ; [0xa28] = 0x50000200
        0x000007be:    6880        .h      LDR      r0,[r0,#8]
        0x000007c0:    2104        .!      MOVS     r1,#4
        0x000007c2:    4308        .C      ORRS     r0,r0,r1
        0x000007c4:    4998        .I      LDR      r1,[pc,#608] ; [0xa28] = 0x50000200
        0x000007c6:    6088        .`      STR      r0,[r1,#8]
        0x000007c8:    4608        .F      MOV      r0,r1
        0x000007ca:    6940        @i      LDR      r0,[r0,#0x14]
        0x000007cc:    2107        .!      MOVS     r1,#7
        0x000007ce:    0209        ..      LSLS     r1,r1,#8
        0x000007d0:    4388        .C      BICS     r0,r0,r1
        0x000007d2:    4995        .I      LDR      r1,[pc,#596] ; [0xa28] = 0x50000200
        0x000007d4:    6148        Ha      STR      r0,[r1,#0x14]
        0x000007d6:    2000        .       MOVS     r0,#0
        0x000007d8:    4994        .I      LDR      r1,[pc,#592] ; [0xa2c] = 0x40010000
        0x000007da:    6008        .`      STR      r0,[r1,#0]
        0x000007dc:    4608        .F      MOV      r0,r1
        0x000007de:    6800        .h      LDR      r0,[r0,#0]
        0x000007e0:    2103        .!      MOVS     r1,#3
        0x000007e2:    06c9        ..      LSLS     r1,r1,#27
        0x000007e4:    4388        .C      BICS     r0,r0,r1
        0x000007e6:    4991        .I      LDR      r1,[pc,#580] ; [0xa2c] = 0x40010000
        0x000007e8:    6008        .`      STR      r0,[r1,#0]
        0x000007ea:    4608        .F      MOV      r0,r1
        0x000007ec:    6800        .h      LDR      r0,[r0,#0]
        0x000007ee:    02c9        ..      LSLS     r1,r1,#11
        0x000007f0:    4308        .C      ORRS     r0,r0,r1
        0x000007f2:    498e        .I      LDR      r1,[pc,#568] ; [0xa2c] = 0x40010000
        0x000007f4:    6008        .`      STR      r0,[r1,#0]
        0x000007f6:    4608        .F      MOV      r0,r1
        0x000007f8:    6800        .h      LDR      r0,[r0,#0]
        0x000007fa:    0349        I.      LSLS     r1,r1,#13
        0x000007fc:    4308        .C      ORRS     r0,r0,r1
        0x000007fe:    498b        .I      LDR      r1,[pc,#556] ; [0xa2c] = 0x40010000
        0x00000800:    6008        .`      STR      r0,[r1,#0]
        0x00000802:    4608        .F      MOV      r0,r1
        0x00000804:    6800        .h      LDR      r0,[r0,#0]
        0x00000806:    0289        ..      LSLS     r1,r1,#10
        0x00000808:    4308        .C      ORRS     r0,r0,r1
        0x0000080a:    4988        .I      LDR      r1,[pc,#544] ; [0xa2c] = 0x40010000
        0x0000080c:    6008        .`      STR      r0,[r1,#0]
        0x0000080e:    4770        pG      BX       lr
    TMR0_Delay1ms
        0x00000810:    2178        x!      MOVS     r1,#0x78
        0x00000812:    4a86        .J      LDR      r2,[pc,#536] ; [0xa2c] = 0x40010000
        0x00000814:    6051        Q`      STR      r1,[r2,#4]
        0x00000816:    4611        .F      MOV      r1,r2
        0x00000818:    6809        .h      LDR      r1,[r1,#0]
        0x0000081a:    0392        ..      LSLS     r2,r2,#14
        0x0000081c:    4311        .C      ORRS     r1,r1,r2
        0x0000081e:    4a83        .J      LDR      r2,[pc,#524] ; [0xa2c] = 0x40010000
        0x00000820:    6011        .`      STR      r1,[r2,#0]
        0x00000822:    e00c        ..      B        0x83e ; TMR0_Delay1ms + 46
        0x00000824:    bf00        ..      NOP      
        0x00000826:    4981        .I      LDR      r1,[pc,#516] ; [0xa2c] = 0x40010000
        0x00000828:    6889        .h      LDR      r1,[r1,#8]
        0x0000082a:    07c9        ..      LSLS     r1,r1,#31
        0x0000082c:    0fc9        ..      LSRS     r1,r1,#31
        0x0000082e:    d0fa        ..      BEQ      0x826 ; TMR0_Delay1ms + 22
        0x00000830:    497e        ~I      LDR      r1,[pc,#504] ; [0xa2c] = 0x40010000
        0x00000832:    6889        .h      LDR      r1,[r1,#8]
        0x00000834:    2201        ."      MOVS     r2,#1
        0x00000836:    4311        .C      ORRS     r1,r1,r2
        0x00000838:    4a7c        |J      LDR      r2,[pc,#496] ; [0xa2c] = 0x40010000
        0x0000083a:    6091        .`      STR      r1,[r2,#8]
        0x0000083c:    1e40        @.      SUBS     r0,r0,#1
        0x0000083e:    2801        .(      CMP      r0,#1
        0x00000840:    d1f0        ..      BNE      0x824 ; TMR0_Delay1ms + 20
        0x00000842:    497a        zI      LDR      r1,[pc,#488] ; [0xa2c] = 0x40010000
        0x00000844:    6809        .h      LDR      r1,[r1,#0]
        0x00000846:    0782        ..      LSLS     r2,r0,#30
        0x00000848:    4391        .C      BICS     r1,r1,r2
        0x0000084a:    4a78        xJ      LDR      r2,[pc,#480] ; [0xa2c] = 0x40010000
        0x0000084c:    6011        .`      STR      r1,[r2,#0]
        0x0000084e:    4770        pG      BX       lr
    Init_SPI
        0x00000850:    2005        .       MOVS     r0,#5
        0x00000852:    0700        ..      LSLS     r0,r0,#28
        0x00000854:    6b00        .k      LDR      r0,[r0,#0x30]
        0x00000856:    4976        vI      LDR      r1,[pc,#472] ; [0xa30] = 0xffff0f0f
        0x00000858:    4008        .@      ANDS     r0,r0,r1
        0x0000085a:    2105        .!      MOVS     r1,#5
        0x0000085c:    0709        ..      LSLS     r1,r1,#28
        0x0000085e:    6308        .c      STR      r0,[r1,#0x30]
        0x00000860:    4608        .F      MOV      r0,r1
        0x00000862:    6b00        .k      LDR      r0,[r0,#0x30]
        0x00000864:    210f        .!      MOVS     r1,#0xf
        0x00000866:    0309        ..      LSLS     r1,r1,#12
        0x00000868:    4308        .C      ORRS     r0,r0,r1
        0x0000086a:    2105        .!      MOVS     r1,#5
        0x0000086c:    0709        ..      LSLS     r1,r1,#28
        0x0000086e:    6308        .c      STR      r0,[r1,#0x30]
        0x00000870:    486d        mH      LDR      r0,[pc,#436] ; [0xa28] = 0x50000200
        0x00000872:    6880        .h      LDR      r0,[r0,#8]
        0x00000874:    2101        .!      MOVS     r1,#1
        0x00000876:    0349        I.      LSLS     r1,r1,#13
        0x00000878:    4308        .C      ORRS     r0,r0,r1
        0x0000087a:    496b        kI      LDR      r1,[pc,#428] ; [0xa28] = 0x50000200
        0x0000087c:    6088        .`      STR      r0,[r1,#8]
        0x0000087e:    2005        .       MOVS     r0,#5
        0x00000880:    0700        ..      LSLS     r0,r0,#28
        0x00000882:    68c0        .h      LDR      r0,[r0,#0xc]
        0x00000884:    0109        ..      LSLS     r1,r1,#4
        0x00000886:    4308        .C      ORRS     r0,r0,r1
        0x00000888:    2105        .!      MOVS     r1,#5
        0x0000088a:    0709        ..      LSLS     r1,r1,#28
        0x0000088c:    60c8        .`      STR      r0,[r1,#0xc]
        0x0000088e:    4608        .F      MOV      r0,r1
        0x00000890:    68c0        .h      LDR      r0,[r0,#0xc]
        0x00000892:    2101        .!      MOVS     r1,#1
        0x00000894:    0349        I.      LSLS     r1,r1,#13
        0x00000896:    4388        .C      BICS     r0,r0,r1
        0x00000898:    2105        .!      MOVS     r1,#5
        0x0000089a:    0709        ..      LSLS     r1,r1,#28
        0x0000089c:    60c8        .`      STR      r0,[r1,#0xc]
        0x0000089e:    4865        eH      LDR      r0,[pc,#404] ; [0xa34] = 0x40034000
        0x000008a0:    6880        .h      LDR      r0,[r0,#8]
        0x000008a2:    2104        .!      MOVS     r1,#4
        0x000008a4:    4388        .C      BICS     r0,r0,r1
        0x000008a6:    4963        cI      LDR      r1,[pc,#396] ; [0xa34] = 0x40034000
        0x000008a8:    6088        .`      STR      r0,[r1,#8]
        0x000008aa:    4608        .F      MOV      r0,r1
        0x000008ac:    6800        .h      LDR      r0,[r0,#0]
        0x000008ae:    1509        ..      ASRS     r1,r1,#20
        0x000008b0:    4388        .C      BICS     r0,r0,r1
        0x000008b2:    4960        `I      LDR      r1,[pc,#384] ; [0xa34] = 0x40034000
        0x000008b4:    6008        .`      STR      r0,[r1,#0]
        0x000008b6:    4608        .F      MOV      r0,r1
        0x000008b8:    6800        .h      LDR      r0,[r0,#0]
        0x000008ba:    14c9        ..      ASRS     r1,r1,#19
        0x000008bc:    4388        .C      BICS     r0,r0,r1
        0x000008be:    495d        ]I      LDR      r1,[pc,#372] ; [0xa34] = 0x40034000
        0x000008c0:    6008        .`      STR      r0,[r1,#0]
        0x000008c2:    4608        .F      MOV      r0,r1
        0x000008c4:    6800        .h      LDR      r0,[r0,#0]
        0x000008c6:    2104        .!      MOVS     r1,#4
        0x000008c8:    4308        .C      ORRS     r0,r0,r1
        0x000008ca:    495a        ZI      LDR      r1,[pc,#360] ; [0xa34] = 0x40034000
        0x000008cc:    6008        .`      STR      r0,[r1,#0]
        0x000008ce:    4608        .F      MOV      r0,r1
        0x000008d0:    6800        .h      LDR      r0,[r0,#0]
        0x000008d2:    2102        .!      MOVS     r1,#2
        0x000008d4:    4388        .C      BICS     r0,r0,r1
        0x000008d6:    4957        WI      LDR      r1,[pc,#348] ; [0xa34] = 0x40034000
        0x000008d8:    6008        .`      STR      r0,[r1,#0]
        0x000008da:    4853        SH      LDR      r0,[pc,#332] ; [0xa28] = 0x50000200
        0x000008dc:    6980        .i      LDR      r0,[r0,#0x18]
        0x000008de:    0900        ..      LSRS     r0,r0,#4
        0x000008e0:    0100        ..      LSLS     r0,r0,#4
        0x000008e2:    4951        QI      LDR      r1,[pc,#324] ; [0xa28] = 0x50000200
        0x000008e4:    6188        .a      STR      r0,[r1,#0x18]
        0x000008e6:    4853        SH      LDR      r0,[pc,#332] ; [0xa34] = 0x40034000
        0x000008e8:    6840        @h      LDR      r0,[r0,#4]
        0x000008ea:    0c00        ..      LSRS     r0,r0,#16
        0x000008ec:    0400        ..      LSLS     r0,r0,#16
        0x000008ee:    4951        QI      LDR      r1,[pc,#324] ; [0xa34] = 0x40034000
        0x000008f0:    6048        H`      STR      r0,[r1,#4]
        0x000008f2:    4608        .F      MOV      r0,r1
        0x000008f4:    6840        @h      LDR      r0,[r0,#4]
        0x000008f6:    2117        .!      MOVS     r1,#0x17
        0x000008f8:    4308        .C      ORRS     r0,r0,r1
        0x000008fa:    494e        NI      LDR      r1,[pc,#312] ; [0xa34] = 0x40034000
        0x000008fc:    6048        H`      STR      r0,[r1,#4]
        0x000008fe:    4608        .F      MOV      r0,r1
        0x00000900:    6800        .h      LDR      r0,[r0,#0]
        0x00000902:    2180        .!      MOVS     r1,#0x80
        0x00000904:    4308        .C      ORRS     r0,r0,r1
        0x00000906:    494b        KI      LDR      r1,[pc,#300] ; [0xa34] = 0x40034000
        0x00000908:    6008        .`      STR      r0,[r1,#0]
        0x0000090a:    4608        .F      MOV      r0,r1
        0x0000090c:    6800        .h      LDR      r0,[r0,#0]
        0x0000090e:    2101        .!      MOVS     r1,#1
        0x00000910:    0489        ..      LSLS     r1,r1,#18
        0x00000912:    4388        .C      BICS     r0,r0,r1
        0x00000914:    4947        GI      LDR      r1,[pc,#284] ; [0xa34] = 0x40034000
        0x00000916:    6008        .`      STR      r0,[r1,#0]
        0x00000918:    4608        .F      MOV      r0,r1
        0x0000091a:    6880        .h      LDR      r0,[r0,#8]
        0x0000091c:    2108        .!      MOVS     r1,#8
        0x0000091e:    4308        .C      ORRS     r0,r0,r1
        0x00000920:    4944        DI      LDR      r1,[pc,#272] ; [0xa34] = 0x40034000
        0x00000922:    6088        .`      STR      r0,[r1,#8]
        0x00000924:    4608        .F      MOV      r0,r1
        0x00000926:    6880        .h      LDR      r0,[r0,#8]
        0x00000928:    2101        .!      MOVS     r1,#1
        0x0000092a:    4308        .C      ORRS     r0,r0,r1
        0x0000092c:    4941        AI      LDR      r1,[pc,#260] ; [0xa34] = 0x40034000
        0x0000092e:    6088        .`      STR      r0,[r1,#8]
        0x00000930:    4770        pG      BX       lr
    SPI_SingleWrite
        0x00000932:    4601        .F      MOV      r1,r0
        0x00000934:    483f        ?H      LDR      r0,[pc,#252] ; [0xa34] = 0x40034000
        0x00000936:    6800        .h      LDR      r0,[r0,#0]
        0x00000938:    07c0        ..      LSLS     r0,r0,#31
        0x0000093a:    0fc0        ..      LSRS     r0,r0,#31
        0x0000093c:    d001        ..      BEQ      0x942 ; SPI_SingleWrite + 16
        0x0000093e:    2000        .       MOVS     r0,#0
        0x00000940:    4770        pG      BX       lr
        0x00000942:    483c        <H      LDR      r0,[pc,#240] ; [0xa34] = 0x40034000
        0x00000944:    6800        .h      LDR      r0,[r0,#0]
        0x00000946:    22ff        ."      MOVS     r2,#0xff
        0x00000948:    3201        .2      ADDS     r2,#1
        0x0000094a:    4390        .C      BICS     r0,r0,r2
        0x0000094c:    4a39        9J      LDR      r2,[pc,#228] ; [0xa34] = 0x40034000
        0x0000094e:    6010        .`      STR      r0,[r2,#0]
        0x00000950:    4610        .F      MOV      r0,r2
        0x00000952:    6201        .b      STR      r1,[r0,#0x20]
        0x00000954:    6800        .h      LDR      r0,[r0,#0]
        0x00000956:    2201        ."      MOVS     r2,#1
        0x00000958:    4310        .C      ORRS     r0,r0,r2
        0x0000095a:    4a36        6J      LDR      r2,[pc,#216] ; [0xa34] = 0x40034000
        0x0000095c:    6010        .`      STR      r0,[r2,#0]
        0x0000095e:    2001        .       MOVS     r0,#1
        0x00000960:    e7ee        ..      B        0x940 ; SPI_SingleWrite + 14
    SPI_IsBusy
        0x00000962:    4834        4H      LDR      r0,[pc,#208] ; [0xa34] = 0x40034000
        0x00000964:    6800        .h      LDR      r0,[r0,#0]
        0x00000966:    07c0        ..      LSLS     r0,r0,#31
        0x00000968:    0fc0        ..      LSRS     r0,r0,#31
        0x0000096a:    d001        ..      BEQ      0x970 ; SPI_IsBusy + 14
        0x0000096c:    2001        .       MOVS     r0,#1
        0x0000096e:    4770        pG      BX       lr
        0x00000970:    2000        .       MOVS     r0,#0
        0x00000972:    e7fc        ..      B        0x96e ; SPI_IsBusy + 12
    SPI_WriteAndWait
        0x00000974:    b500        ..      PUSH     {lr}
        0x00000976:    4603        .F      MOV      r3,r0
        0x00000978:    4618        .F      MOV      r0,r3
        0x0000097a:    f7ffffda    ....    BL       SPI_SingleWrite ; 0x932
        0x0000097e:    bf00        ..      NOP      
        0x00000980:    f7ffffef    ....    BL       SPI_IsBusy ; 0x962
        0x00000984:    2800        .(      CMP      r0,#0
        0x00000986:    d1fb        ..      BNE      0x980 ; SPI_WriteAndWait + 12
        0x00000988:    bd00        ..      POP      {pc}
    SPI_Read
        0x0000098a:    b570        p.      PUSH     {r4-r6,lr}
        0x0000098c:    4604        .F      MOV      r4,r0
        0x0000098e:    2500        .%      MOVS     r5,#0
        0x00000990:    4828        (H      LDR      r0,[pc,#160] ; [0xa34] = 0x40034000
        0x00000992:    6800        .h      LDR      r0,[r0,#0]
        0x00000994:    07c0        ..      LSLS     r0,r0,#31
        0x00000996:    0fc0        ..      LSRS     r0,r0,#31
        0x00000998:    d001        ..      BEQ      0x99e ; SPI_Read + 20
        0x0000099a:    2000        .       MOVS     r0,#0
        0x0000099c:    bd70        p.      POP      {r4-r6,pc}
        0x0000099e:    4620         F      MOV      r0,r4
        0x000009a0:    f7ffffe8    ....    BL       SPI_WriteAndWait ; 0x974
        0x000009a4:    4923        #I      LDR      r1,[pc,#140] ; [0xa34] = 0x40034000
        0x000009a6:    6908        .i      LDR      r0,[r1,#0x10]
        0x000009a8:    f002f936    ..6.    BL       __aeabi_ui2f ; 0x2c18
        0x000009ac:    4605        .F      MOV      r5,r0
        0x000009ae:    4628        (F      MOV      r0,r5
        0x000009b0:    e7f4        ..      B        0x99c ; SPI_Read + 18
    SPI_Sensor_Read
        0x000009b2:    b5f7        ..      PUSH     {r0-r2,r4-r7,lr}
        0x000009b4:    b084        ..      SUB      sp,sp,#0x10
        0x000009b6:    460e        .F      MOV      r6,r1
        0x000009b8:    4617        .F      MOV      r7,r2
        0x000009ba:    2000        .       MOVS     r0,#0
        0x000009bc:    9003        ..      STR      r0,[sp,#0xc]
        0x000009be:    9002        ..      STR      r0,[sp,#8]
        0x000009c0:    2500        .%      MOVS     r5,#0
        0x000009c2:    2400        .$      MOVS     r4,#0
        0x000009c4:    9001        ..      STR      r0,[sp,#4]
        0x000009c6:    481b        .H      LDR      r0,[pc,#108] ; [0xa34] = 0x40034000
        0x000009c8:    6800        .h      LDR      r0,[r0,#0]
        0x000009ca:    07c0        ..      LSLS     r0,r0,#31
        0x000009cc:    0fc0        ..      LSRS     r0,r0,#31
        0x000009ce:    d002        ..      BEQ      0x9d6 ; SPI_Sensor_Read + 36
        0x000009d0:    2000        .       MOVS     r0,#0
        0x000009d2:    b007        ..      ADD      sp,sp,#0x1c
        0x000009d4:    bdf0        ..      POP      {r4-r7,pc}
        0x000009d6:    9804        ..      LDR      r0,[sp,#0x10]
        0x000009d8:    f7ffffcc    ....    BL       SPI_WriteAndWait ; 0x974
        0x000009dc:    4815        .H      LDR      r0,[pc,#84] ; [0xa34] = 0x40034000
        0x000009de:    6900        .i      LDR      r0,[r0,#0x10]
        0x000009e0:    b2c0        ..      UXTB     r0,r0
        0x000009e2:    9002        ..      STR      r0,[sp,#8]
        0x000009e4:    4630        0F      MOV      r0,r6
        0x000009e6:    f7ffffc5    ....    BL       SPI_WriteAndWait ; 0x974
        0x000009ea:    4812        .H      LDR      r0,[pc,#72] ; [0xa34] = 0x40034000
        0x000009ec:    6900        .i      LDR      r0,[r0,#0x10]
        0x000009ee:    b2c0        ..      UXTB     r0,r0
        0x000009f0:    9003        ..      STR      r0,[sp,#0xc]
        0x000009f2:    9803        ..      LDR      r0,[sp,#0xc]
        0x000009f4:    0200        ..      LSLS     r0,r0,#8
        0x000009f6:    4305        .C      ORRS     r5,r5,r0
        0x000009f8:    9802        ..      LDR      r0,[sp,#8]
        0x000009fa:    4305        .C      ORRS     r5,r5,r0
        0x000009fc:    b22c        ,.      SXTH     r4,r5
        0x000009fe:    2f00        ./      CMP      r7,#0
        0x00000a00:    d108        ..      BNE      0xa14 ; SPI_Sensor_Read + 98
        0x00000a02:    17e1        ..      ASRS     r1,r4,#31
        0x00000a04:    0c89        ..      LSRS     r1,r1,#18
        0x00000a06:    1909        ..      ADDS     r1,r1,r4
        0x00000a08:    1388        ..      ASRS     r0,r1,#14
        0x00000a0a:    9400        ..      STR      r4,[sp,#0]
        0x00000a0c:    f002f8fc    ....    BL       __aeabi_i2f ; 0x2c08
        0x00000a10:    9001        ..      STR      r0,[sp,#4]
        0x00000a12:    e007        ..      B        0xa24 ; SPI_Sensor_Read + 114
        0x00000a14:    2183        .!      MOVS     r1,#0x83
        0x00000a16:    4620         F      MOV      r0,r4
        0x00000a18:    f001fa19    ....    BL       __aeabi_idiv ; 0x1e4e
        0x00000a1c:    9000        ..      STR      r0,[sp,#0]
        0x00000a1e:    f002f8f3    ....    BL       __aeabi_i2f ; 0x2c08
        0x00000a22:    9001        ..      STR      r0,[sp,#4]
        0x00000a24:    9801        ..      LDR      r0,[sp,#4]
        0x00000a26:    e7d4        ..      B        0x9d2 ; SPI_Sensor_Read + 32
    $d
        0x00000a28:    50000200    ...P    DCD    1342177792
        0x00000a2c:    40010000    ...@    DCD    1073807360
        0x00000a30:    ffff0f0f    ....    DCD    4294905615
        0x00000a34:    40034000    .@.@    DCD    1073954816
    $t
    .text
    Init_System_Clocks_PLL
        0x00000a38:    b510        ..      PUSH     {r4,lr}
        0x00000a3a:    f7fffca7    ....    BL       Un_Lock_Reg ; 0x38c
        0x00000a3e:    4823        #H      LDR      r0,[pc,#140] ; [0xacc] = 0x50000200
        0x00000a40:    6800        .h      LDR      r0,[r0,#0]
        0x00000a42:    2101        .!      MOVS     r1,#1
        0x00000a44:    4308        .C      ORRS     r0,r0,r1
        0x00000a46:    4921        !I      LDR      r1,[pc,#132] ; [0xacc] = 0x50000200
        0x00000a48:    6008        .`      STR      r0,[r1,#0]
        0x00000a4a:    4608        .F      MOV      r0,r1
        0x00000a4c:    6800        .h      LDR      r0,[r0,#0]
        0x00000a4e:    2108        .!      MOVS     r1,#8
        0x00000a50:    4308        .C      ORRS     r0,r0,r1
        0x00000a52:    491e        .I      LDR      r1,[pc,#120] ; [0xacc] = 0x50000200
        0x00000a54:    6008        .`      STR      r0,[r1,#0]
        0x00000a56:    4608        .F      MOV      r0,r1
        0x00000a58:    6800        .h      LDR      r0,[r0,#0]
        0x00000a5a:    2104        .!      MOVS     r1,#4
        0x00000a5c:    4308        .C      ORRS     r0,r0,r1
        0x00000a5e:    491b        .I      LDR      r1,[pc,#108] ; [0xacc] = 0x50000200
        0x00000a60:    6008        .`      STR      r0,[r1,#0]
        0x00000a62:    bf00        ..      NOP      
        0x00000a64:    4819        .H      LDR      r0,[pc,#100] ; [0xacc] = 0x50000200
        0x00000a66:    68c0        .h      LDR      r0,[r0,#0xc]
        0x00000a68:    07c0        ..      LSLS     r0,r0,#31
        0x00000a6a:    0fc0        ..      LSRS     r0,r0,#31
        0x00000a6c:    d0fa        ..      BEQ      0xa64 ; Init_System_Clocks_PLL + 44
        0x00000a6e:    4817        .H      LDR      r0,[pc,#92] ; [0xacc] = 0x50000200
        0x00000a70:    6900        .i      LDR      r0,[r0,#0x10]
        0x00000a72:    08c0        ..      LSRS     r0,r0,#3
        0x00000a74:    00c0        ..      LSLS     r0,r0,#3
        0x00000a76:    1c80        ..      ADDS     r0,r0,#2
        0x00000a78:    4914        .I      LDR      r1,[pc,#80] ; [0xacc] = 0x50000200
        0x00000a7a:    6108        .a      STR      r0,[r1,#0x10]
        0x00000a7c:    f7fffc8e    ....    BL       Lock_Reg ; 0x39c
        0x00000a80:    bd10        ..      POP      {r4,pc}
    Init_System_Clocks_External_12MHz
        0x00000a82:    b510        ..      PUSH     {r4,lr}
        0x00000a84:    f7fffc82    ....    BL       Un_Lock_Reg ; 0x38c
        0x00000a88:    4810        .H      LDR      r0,[pc,#64] ; [0xacc] = 0x50000200
        0x00000a8a:    6800        .h      LDR      r0,[r0,#0]
        0x00000a8c:    2101        .!      MOVS     r1,#1
        0x00000a8e:    4308        .C      ORRS     r0,r0,r1
        0x00000a90:    490e        .I      LDR      r1,[pc,#56] ; [0xacc] = 0x50000200
        0x00000a92:    6008        .`      STR      r0,[r1,#0]
        0x00000a94:    4608        .F      MOV      r0,r1
        0x00000a96:    6800        .h      LDR      r0,[r0,#0]
        0x00000a98:    2108        .!      MOVS     r1,#8
        0x00000a9a:    4308        .C      ORRS     r0,r0,r1
        0x00000a9c:    490b        .I      LDR      r1,[pc,#44] ; [0xacc] = 0x50000200
        0x00000a9e:    6008        .`      STR      r0,[r1,#0]
        0x00000aa0:    4608        .F      MOV      r0,r1
        0x00000aa2:    6800        .h      LDR      r0,[r0,#0]
        0x00000aa4:    2104        .!      MOVS     r1,#4
        0x00000aa6:    4308        .C      ORRS     r0,r0,r1
        0x00000aa8:    4908        .I      LDR      r1,[pc,#32] ; [0xacc] = 0x50000200
        0x00000aaa:    6008        .`      STR      r0,[r1,#0]
        0x00000aac:    bf00        ..      NOP      
        0x00000aae:    4807        .H      LDR      r0,[pc,#28] ; [0xacc] = 0x50000200
        0x00000ab0:    68c0        .h      LDR      r0,[r0,#0xc]
        0x00000ab2:    07c0        ..      LSLS     r0,r0,#31
        0x00000ab4:    0fc0        ..      LSRS     r0,r0,#31
        0x00000ab6:    d0fa        ..      BEQ      0xaae ; Init_System_Clocks_External_12MHz + 44
        0x00000ab8:    4804        .H      LDR      r0,[pc,#16] ; [0xacc] = 0x50000200
        0x00000aba:    6900        .i      LDR      r0,[r0,#0x10]
        0x00000abc:    08c0        ..      LSRS     r0,r0,#3
        0x00000abe:    00c0        ..      LSLS     r0,r0,#3
        0x00000ac0:    4902        .I      LDR      r1,[pc,#8] ; [0xacc] = 0x50000200
        0x00000ac2:    6108        .a      STR      r0,[r1,#0x10]
        0x00000ac4:    f7fffc6a    ..j.    BL       Lock_Reg ; 0x39c
        0x00000ac8:    bd10        ..      POP      {r4,pc}
    $d
        0x00000aca:    0000        ..      DCW    0
        0x00000acc:    50000200    ...P    DCD    1342177792
    $t
    .text
    Init_ADC
        0x00000ad0:    b500        ..      PUSH     {lr}
        0x00000ad2:    49fe        .I      LDR      r1,[pc,#1016] ; [0xecc] = 0x20000040
        0x00000ad4:    6809        .h      LDR      r1,[r1,#0]
        0x00000ad6:    2900        .)      CMP      r1,#0
        0x00000ad8:    d146        F.      BNE      0xb68 ; Init_ADC + 152
        0x00000ada:    2105        .!      MOVS     r1,#5
        0x00000adc:    0709        ..      LSLS     r1,r1,#28
        0x00000ade:    68c9        .h      LDR      r1,[r1,#0xc]
        0x00000ae0:    2201        ."      MOVS     r2,#1
        0x00000ae2:    0712        ..      LSLS     r2,r2,#28
        0x00000ae4:    4311        .C      ORRS     r1,r1,r2
        0x00000ae6:    2205        ."      MOVS     r2,#5
        0x00000ae8:    0712        ..      LSLS     r2,r2,#28
        0x00000aea:    60d1        .`      STR      r1,[r2,#0xc]
        0x00000aec:    4611        .F      MOV      r1,r2
        0x00000aee:    68c9        .h      LDR      r1,[r1,#0xc]
        0x00000af0:    2201        ."      MOVS     r2,#1
        0x00000af2:    0712        ..      LSLS     r2,r2,#28
        0x00000af4:    4391        .C      BICS     r1,r1,r2
        0x00000af6:    2205        ."      MOVS     r2,#5
        0x00000af8:    0712        ..      LSLS     r2,r2,#28
        0x00000afa:    60d1        .`      STR      r1,[r2,#0xc]
        0x00000afc:    49f4        .I      LDR      r1,[pc,#976] ; [0xed0] = 0x50000200
        0x00000afe:    6889        .h      LDR      r1,[r1,#8]
        0x00000b00:    2201        ."      MOVS     r2,#1
        0x00000b02:    0712        ..      LSLS     r2,r2,#28
        0x00000b04:    4311        .C      ORRS     r1,r1,r2
        0x00000b06:    4af2        .J      LDR      r2,[pc,#968] ; [0xed0] = 0x50000200
        0x00000b08:    6091        .`      STR      r1,[r2,#8]
        0x00000b0a:    4611        .F      MOV      r1,r2
        0x00000b0c:    6949        Ii      LDR      r1,[r1,#0x14]
        0x00000b0e:    220c        ."      MOVS     r2,#0xc
        0x00000b10:    4391        .C      BICS     r1,r1,r2
        0x00000b12:    4aef        .J      LDR      r2,[pc,#956] ; [0xed0] = 0x50000200
        0x00000b14:    6151        Qa      STR      r1,[r2,#0x14]
        0x00000b16:    0251        Q.      LSLS     r1,r2,#9
        0x00000b18:    6191        .a      STR      r1,[r2,#0x18]
        0x00000b1a:    49ee        .I      LDR      r1,[pc,#952] ; [0xed4] = 0x400e0000
        0x00000b1c:    6a09        .j      LDR      r1,[r1,#0x20]
        0x00000b1e:    2201        ."      MOVS     r2,#1
        0x00000b20:    4311        .C      ORRS     r1,r1,r2
        0x00000b22:    4aec        .J      LDR      r2,[pc,#944] ; [0xed4] = 0x400e0000
        0x00000b24:    6211        .b      STR      r1,[r2,#0x20]
        0x00000b26:    4611        .F      MOV      r1,r2
        0x00000b28:    6b49        Ik      LDR      r1,[r1,#0x34]
        0x00000b2a:    2201        ."      MOVS     r2,#1
        0x00000b2c:    4311        .C      ORRS     r1,r1,r2
        0x00000b2e:    4ae9        .J      LDR      r2,[pc,#932] ; [0xed4] = 0x400e0000
        0x00000b30:    6351        Qc      STR      r1,[r2,#0x34]
        0x00000b32:    bf00        ..      NOP      
        0x00000b34:    49e7        .I      LDR      r1,[pc,#924] ; [0xed4] = 0x400e0000
        0x00000b36:    6b49        Ik      LDR      r1,[r1,#0x34]
        0x00000b38:    2202        ."      MOVS     r2,#2
        0x00000b3a:    4211        .B      TST      r1,r2
        0x00000b3c:    d0fa        ..      BEQ      0xb34 ; Init_ADC + 100
        0x00000b3e:    49e5        .I      LDR      r1,[pc,#916] ; [0xed4] = 0x400e0000
        0x00000b40:    6a09        .j      LDR      r1,[r1,#0x20]
        0x00000b42:    220c        ."      MOVS     r2,#0xc
        0x00000b44:    4391        .C      BICS     r1,r1,r2
        0x00000b46:    4ae3        .J      LDR      r2,[pc,#908] ; [0xed4] = 0x400e0000
        0x00000b48:    6211        .b      STR      r1,[r2,#0x20]
        0x00000b4a:    4611        .F      MOV      r1,r2
        0x00000b4c:    6a09        .j      LDR      r1,[r1,#0x20]
        0x00000b4e:    220c        ."      MOVS     r2,#0xc
        0x00000b50:    4311        .C      ORRS     r1,r1,r2
        0x00000b52:    4ae0        .J      LDR      r2,[pc,#896] ; [0xed4] = 0x400e0000
        0x00000b54:    6211        .b      STR      r1,[r2,#0x20]
        0x00000b56:    4611        .F      MOV      r1,r2
        0x00000b58:    6a09        .j      LDR      r1,[r1,#0x20]
        0x00000b5a:    1512        ..      ASRS     r2,r2,#20
        0x00000b5c:    4391        .C      BICS     r1,r1,r2
        0x00000b5e:    4add        .J      LDR      r2,[pc,#884] ; [0xed4] = 0x400e0000
        0x00000b60:    6211        .b      STR      r1,[r2,#0x20]
        0x00000b62:    2101        .!      MOVS     r1,#1
        0x00000b64:    4ad9        .J      LDR      r2,[pc,#868] ; [0xecc] = 0x20000040
        0x00000b66:    6011        .`      STR      r1,[r2,#0]
        0x00000b68:    0003        ..      MOVS     r3,r0
        0x00000b6a:    f002fef6    ....    BL       __ARM_common_switch8 ; 0x395a
    $d
        0x00000b6e:    0508        ..      DCW    1288
        0x00000b70:    c5956535    5e..    DCD    3314902325
        0x00000b74:    34f6f7f9    ...4    DCD    888600569
    $t
        0x00000b78:    49d6        .I      LDR      r1,[pc,#856] ; [0xed4] = 0x400e0000
        0x00000b7a:    6a49        Ij      LDR      r1,[r1,#0x24]
        0x00000b7c:    2201        ."      MOVS     r2,#1
        0x00000b7e:    4311        .C      ORRS     r1,r1,r2
        0x00000b80:    4ad4        .J      LDR      r2,[pc,#848] ; [0xed4] = 0x400e0000
        0x00000b82:    6251        Qb      STR      r1,[r2,#0x24]
        0x00000b84:    2105        .!      MOVS     r1,#5
        0x00000b86:    0709        ..      LSLS     r1,r1,#28
        0x00000b88:    6b49        Ik      LDR      r1,[r1,#0x34]
        0x00000b8a:    22ff        ."      MOVS     r2,#0xff
        0x00000b8c:    3202        .2      ADDS     r2,#2
        0x00000b8e:    4391        .C      BICS     r1,r1,r2
        0x00000b90:    2205        ."      MOVS     r2,#5
        0x00000b92:    0712        ..      LSLS     r2,r2,#28
        0x00000b94:    6351        Qc      STR      r1,[r2,#0x34]
        0x00000b96:    4611        .F      MOV      r1,r2
        0x00000b98:    6b49        Ik      LDR      r1,[r1,#0x34]
        0x00000b9a:    2201        ."      MOVS     r2,#1
        0x00000b9c:    4311        .C      ORRS     r1,r1,r2
        0x00000b9e:    2205        ."      MOVS     r2,#5
        0x00000ba0:    0712        ..      LSLS     r2,r2,#28
        0x00000ba2:    6351        Qc      STR      r1,[r2,#0x34]
        0x00000ba4:    49cc        .I      LDR      r1,[pc,#816] ; [0xed8] = 0x50004040
        0x00000ba6:    6849        Ih      LDR      r1,[r1,#4]
        0x00000ba8:    2201        ."      MOVS     r2,#1
        0x00000baa:    0412        ..      LSLS     r2,r2,#16
        0x00000bac:    4391        .C      BICS     r1,r1,r2
        0x00000bae:    4aca        .J      LDR      r2,[pc,#808] ; [0xed8] = 0x50004040
        0x00000bb0:    6051        Q`      STR      r1,[r2,#4]
        0x00000bb2:    4611        .F      MOV      r1,r2
        0x00000bb4:    6849        Ih      LDR      r1,[r1,#4]
        0x00000bb6:    2201        ."      MOVS     r2,#1
        0x00000bb8:    0412        ..      LSLS     r2,r2,#16
        0x00000bba:    4311        .C      ORRS     r1,r1,r2
        0x00000bbc:    4ac6        .J      LDR      r2,[pc,#792] ; [0xed8] = 0x50004040
        0x00000bbe:    6051        Q`      STR      r1,[r2,#4]
        0x00000bc0:    4611        .F      MOV      r1,r2
        0x00000bc2:    6809        .h      LDR      r1,[r1,#0]
        0x00000bc4:    0889        ..      LSRS     r1,r1,#2
        0x00000bc6:    0089        ..      LSLS     r1,r1,#2
        0x00000bc8:    6011        .`      STR      r1,[r2,#0]
        0x00000bca:    4611        .F      MOV      r1,r2
        0x00000bcc:    6809        .h      LDR      r1,[r1,#0]
        0x00000bce:    6011        .`      STR      r1,[r2,#0]
        0x00000bd0:    2101        .!      MOVS     r1,#1
        0x00000bd2:    4ac2        .J      LDR      r2,[pc,#776] ; [0xedc] = 0x2000004c
        0x00000bd4:    6011        .`      STR      r1,[r2,#0]
        0x00000bd6:    e156        V.      B        0xe86 ; Init_ADC + 950
        0x00000bd8:    49be        .I      LDR      r1,[pc,#760] ; [0xed4] = 0x400e0000
        0x00000bda:    6a49        Ij      LDR      r1,[r1,#0x24]
        0x00000bdc:    2202        ."      MOVS     r2,#2
        0x00000bde:    4311        .C      ORRS     r1,r1,r2
        0x00000be0:    4abc        .J      LDR      r2,[pc,#752] ; [0xed4] = 0x400e0000
        0x00000be2:    6251        Qb      STR      r1,[r2,#0x24]
        0x00000be4:    2105        .!      MOVS     r1,#5
        0x00000be6:    0709        ..      LSLS     r1,r1,#28
        0x00000be8:    6b49        Ik      LDR      r1,[r1,#0x34]
        0x00000bea:    4abd        .J      LDR      r2,[pc,#756] ; [0xee0] = 0xfffffdfd
        0x00000bec:    4011        .@      ANDS     r1,r1,r2
        0x00000bee:    2205        ."      MOVS     r2,#5
        0x00000bf0:    0712        ..      LSLS     r2,r2,#28
        0x00000bf2:    6351        Qc      STR      r1,[r2,#0x34]
        0x00000bf4:    4611        .F      MOV      r1,r2
        0x00000bf6:    6b49        Ik      LDR      r1,[r1,#0x34]
        0x00000bf8:    2202        ."      MOVS     r2,#2
        0x00000bfa:    4311        .C      ORRS     r1,r1,r2
        0x00000bfc:    2205        ."      MOVS     r2,#5
        0x00000bfe:    0712        ..      LSLS     r2,r2,#28
        0x00000c00:    6351        Qc      STR      r1,[r2,#0x34]
        0x00000c02:    49b5        .I      LDR      r1,[pc,#724] ; [0xed8] = 0x50004040
        0x00000c04:    6849        Ih      LDR      r1,[r1,#4]
        0x00000c06:    2201        ."      MOVS     r2,#1
        0x00000c08:    0452        R.      LSLS     r2,r2,#17
        0x00000c0a:    4391        .C      BICS     r1,r1,r2
        0x00000c0c:    4ab2        .J      LDR      r2,[pc,#712] ; [0xed8] = 0x50004040
        0x00000c0e:    6051        Q`      STR      r1,[r2,#4]
        0x00000c10:    4611        .F      MOV      r1,r2
        0x00000c12:    6849        Ih      LDR      r1,[r1,#4]
        0x00000c14:    2201        ."      MOVS     r2,#1
        0x00000c16:    0452        R.      LSLS     r2,r2,#17
        0x00000c18:    4311        .C      ORRS     r1,r1,r2
        0x00000c1a:    4aaf        .J      LDR      r2,[pc,#700] ; [0xed8] = 0x50004040
        0x00000c1c:    6051        Q`      STR      r1,[r2,#4]
        0x00000c1e:    4611        .F      MOV      r1,r2
        0x00000c20:    6809        .h      LDR      r1,[r1,#0]
        0x00000c22:    220c        ."      MOVS     r2,#0xc
        0x00000c24:    4391        .C      BICS     r1,r1,r2
        0x00000c26:    4aac        .J      LDR      r2,[pc,#688] ; [0xed8] = 0x50004040
        0x00000c28:    6011        .`      STR      r1,[r2,#0]
        0x00000c2a:    4611        .F      MOV      r1,r2
        0x00000c2c:    6809        .h      LDR      r1,[r1,#0]
        0x00000c2e:    6011        .`      STR      r1,[r2,#0]
        0x00000c30:    2101        .!      MOVS     r1,#1
        0x00000c32:    4aaa        .J      LDR      r2,[pc,#680] ; [0xedc] = 0x2000004c
        0x00000c34:    6051        Q`      STR      r1,[r2,#4]
        0x00000c36:    e126        &.      B        0xe86 ; Init_ADC + 950
        0x00000c38:    49a6        .I      LDR      r1,[pc,#664] ; [0xed4] = 0x400e0000
        0x00000c3a:    6a49        Ij      LDR      r1,[r1,#0x24]
        0x00000c3c:    2204        ."      MOVS     r2,#4
        0x00000c3e:    4311        .C      ORRS     r1,r1,r2
        0x00000c40:    4aa4        .J      LDR      r2,[pc,#656] ; [0xed4] = 0x400e0000
        0x00000c42:    6251        Qb      STR      r1,[r2,#0x24]
        0x00000c44:    2105        .!      MOVS     r1,#5
        0x00000c46:    0709        ..      LSLS     r1,r1,#28
        0x00000c48:    6b49        Ik      LDR      r1,[r1,#0x34]
        0x00000c4a:    4aa6        .J      LDR      r2,[pc,#664] ; [0xee4] = 0xfffffbfb
        0x00000c4c:    4011        .@      ANDS     r1,r1,r2
        0x00000c4e:    2205        ."      MOVS     r2,#5
        0x00000c50:    0712        ..      LSLS     r2,r2,#28
        0x00000c52:    6351        Qc      STR      r1,[r2,#0x34]
        0x00000c54:    4611        .F      MOV      r1,r2
        0x00000c56:    6b49        Ik      LDR      r1,[r1,#0x34]
        0x00000c58:    2204        ."      MOVS     r2,#4
        0x00000c5a:    4311        .C      ORRS     r1,r1,r2
        0x00000c5c:    2205        ."      MOVS     r2,#5
        0x00000c5e:    0712        ..      LSLS     r2,r2,#28
        0x00000c60:    6351        Qc      STR      r1,[r2,#0x34]
        0x00000c62:    499d        .I      LDR      r1,[pc,#628] ; [0xed8] = 0x50004040
        0x00000c64:    6849        Ih      LDR      r1,[r1,#4]
        0x00000c66:    2201        ."      MOVS     r2,#1
        0x00000c68:    0492        ..      LSLS     r2,r2,#18
        0x00000c6a:    4391        .C      BICS     r1,r1,r2
        0x00000c6c:    4a9a        .J      LDR      r2,[pc,#616] ; [0xed8] = 0x50004040
        0x00000c6e:    6051        Q`      STR      r1,[r2,#4]
        0x00000c70:    4611        .F      MOV      r1,r2
        0x00000c72:    6849        Ih      LDR      r1,[r1,#4]
        0x00000c74:    2201        ."      MOVS     r2,#1
        0x00000c76:    0492        ..      LSLS     r2,r2,#18
        0x00000c78:    4311        .C      ORRS     r1,r1,r2
        0x00000c7a:    4a97        .J      LDR      r2,[pc,#604] ; [0xed8] = 0x50004040
        0x00000c7c:    6051        Q`      STR      r1,[r2,#4]
        0x00000c7e:    4611        .F      MOV      r1,r2
        0x00000c80:    6809        .h      LDR      r1,[r1,#0]
        0x00000c82:    2230        0"      MOVS     r2,#0x30
        0x00000c84:    4391        .C      BICS     r1,r1,r2
        0x00000c86:    4a94        .J      LDR      r2,[pc,#592] ; [0xed8] = 0x50004040
        0x00000c88:    6011        .`      STR      r1,[r2,#0]
        0x00000c8a:    4611        .F      MOV      r1,r2
        0x00000c8c:    6809        .h      LDR      r1,[r1,#0]
        0x00000c8e:    6011        .`      STR      r1,[r2,#0]
        0x00000c90:    2101        .!      MOVS     r1,#1
        0x00000c92:    4a92        .J      LDR      r2,[pc,#584] ; [0xedc] = 0x2000004c
        0x00000c94:    6091        .`      STR      r1,[r2,#8]
        0x00000c96:    e0f6        ..      B        0xe86 ; Init_ADC + 950
        0x00000c98:    498e        .I      LDR      r1,[pc,#568] ; [0xed4] = 0x400e0000
        0x00000c9a:    6a49        Ij      LDR      r1,[r1,#0x24]
        0x00000c9c:    2208        ."      MOVS     r2,#8
        0x00000c9e:    4311        .C      ORRS     r1,r1,r2
        0x00000ca0:    4a8c        .J      LDR      r2,[pc,#560] ; [0xed4] = 0x400e0000
        0x00000ca2:    6251        Qb      STR      r1,[r2,#0x24]
        0x00000ca4:    2105        .!      MOVS     r1,#5
        0x00000ca6:    0709        ..      LSLS     r1,r1,#28
        0x00000ca8:    6b49        Ik      LDR      r1,[r1,#0x34]
        0x00000caa:    4a8f        .J      LDR      r2,[pc,#572] ; [0xee8] = 0xfffff7f7
        0x00000cac:    4011        .@      ANDS     r1,r1,r2
        0x00000cae:    2205        ."      MOVS     r2,#5
        0x00000cb0:    0712        ..      LSLS     r2,r2,#28
        0x00000cb2:    6351        Qc      STR      r1,[r2,#0x34]
        0x00000cb4:    4611        .F      MOV      r1,r2
        0x00000cb6:    6b49        Ik      LDR      r1,[r1,#0x34]
        0x00000cb8:    2208        ."      MOVS     r2,#8
        0x00000cba:    4311        .C      ORRS     r1,r1,r2
        0x00000cbc:    2205        ."      MOVS     r2,#5
        0x00000cbe:    0712        ..      LSLS     r2,r2,#28
        0x00000cc0:    6351        Qc      STR      r1,[r2,#0x34]
        0x00000cc2:    4985        .I      LDR      r1,[pc,#532] ; [0xed8] = 0x50004040
        0x00000cc4:    6849        Ih      LDR      r1,[r1,#4]
        0x00000cc6:    2201        ."      MOVS     r2,#1
        0x00000cc8:    04d2        ..      LSLS     r2,r2,#19
        0x00000cca:    4391        .C      BICS     r1,r1,r2
        0x00000ccc:    4a82        .J      LDR      r2,[pc,#520] ; [0xed8] = 0x50004040
        0x00000cce:    6051        Q`      STR      r1,[r2,#4]
        0x00000cd0:    4611        .F      MOV      r1,r2
        0x00000cd2:    6849        Ih      LDR      r1,[r1,#4]
        0x00000cd4:    2201        ."      MOVS     r2,#1
        0x00000cd6:    04d2        ..      LSLS     r2,r2,#19
        0x00000cd8:    4311        .C      ORRS     r1,r1,r2
        0x00000cda:    4a7f        .J      LDR      r2,[pc,#508] ; [0xed8] = 0x50004040
        0x00000cdc:    6051        Q`      STR      r1,[r2,#4]
        0x00000cde:    4611        .F      MOV      r1,r2
        0x00000ce0:    6809        .h      LDR      r1,[r1,#0]
        0x00000ce2:    22c0        ."      MOVS     r2,#0xc0
        0x00000ce4:    4391        .C      BICS     r1,r1,r2
        0x00000ce6:    4a7c        |J      LDR      r2,[pc,#496] ; [0xed8] = 0x50004040
        0x00000ce8:    6011        .`      STR      r1,[r2,#0]
        0x00000cea:    4611        .F      MOV      r1,r2
        0x00000cec:    6809        .h      LDR      r1,[r1,#0]
        0x00000cee:    6011        .`      STR      r1,[r2,#0]
        0x00000cf0:    2101        .!      MOVS     r1,#1
        0x00000cf2:    4a7a        zJ      LDR      r2,[pc,#488] ; [0xedc] = 0x2000004c
        0x00000cf4:    60d1        .`      STR      r1,[r2,#0xc]
        0x00000cf6:    e0c6        ..      B        0xe86 ; Init_ADC + 950
        0x00000cf8:    4976        vI      LDR      r1,[pc,#472] ; [0xed4] = 0x400e0000
        0x00000cfa:    6a49        Ij      LDR      r1,[r1,#0x24]
        0x00000cfc:    2210        ."      MOVS     r2,#0x10
        0x00000cfe:    4311        .C      ORRS     r1,r1,r2
        0x00000d00:    4a74        tJ      LDR      r2,[pc,#464] ; [0xed4] = 0x400e0000
        0x00000d02:    6251        Qb      STR      r1,[r2,#0x24]
        0x00000d04:    2105        .!      MOVS     r1,#5
        0x00000d06:    0709        ..      LSLS     r1,r1,#28
        0x00000d08:    6b49        Ik      LDR      r1,[r1,#0x34]
        0x00000d0a:    4a78        xJ      LDR      r2,[pc,#480] ; [0xeec] = 0xffffefef
        0x00000d0c:    4011        .@      ANDS     r1,r1,r2
        0x00000d0e:    2205        ."      MOVS     r2,#5
        0x00000d10:    0712        ..      LSLS     r2,r2,#28
        0x00000d12:    6351        Qc      STR      r1,[r2,#0x34]
        0x00000d14:    4611        .F      MOV      r1,r2
        0x00000d16:    6b49        Ik      LDR      r1,[r1,#0x34]
        0x00000d18:    2210        ."      MOVS     r2,#0x10
        0x00000d1a:    4311        .C      ORRS     r1,r1,r2
        0x00000d1c:    2205        ."      MOVS     r2,#5
        0x00000d1e:    0712        ..      LSLS     r2,r2,#28
        0x00000d20:    6351        Qc      STR      r1,[r2,#0x34]
        0x00000d22:    496d        mI      LDR      r1,[pc,#436] ; [0xed8] = 0x50004040
        0x00000d24:    6849        Ih      LDR      r1,[r1,#4]
        0x00000d26:    2201        ."      MOVS     r2,#1
        0x00000d28:    0512        ..      LSLS     r2,r2,#20
        0x00000d2a:    4391        .C      BICS     r1,r1,r2
        0x00000d2c:    4a6a        jJ      LDR      r2,[pc,#424] ; [0xed8] = 0x50004040
        0x00000d2e:    6051        Q`      STR      r1,[r2,#4]
        0x00000d30:    4611        .F      MOV      r1,r2
        0x00000d32:    6849        Ih      LDR      r1,[r1,#4]
        0x00000d34:    2201        ."      MOVS     r2,#1
        0x00000d36:    0512        ..      LSLS     r2,r2,#20
        0x00000d38:    4311        .C      ORRS     r1,r1,r2
        0x00000d3a:    4a67        gJ      LDR      r2,[pc,#412] ; [0xed8] = 0x50004040
        0x00000d3c:    6051        Q`      STR      r1,[r2,#4]
        0x00000d3e:    4611        .F      MOV      r1,r2
        0x00000d40:    6809        .h      LDR      r1,[r1,#0]
        0x00000d42:    2203        ."      MOVS     r2,#3
        0x00000d44:    0212        ..      LSLS     r2,r2,#8
        0x00000d46:    4391        .C      BICS     r1,r1,r2
        0x00000d48:    4a63        cJ      LDR      r2,[pc,#396] ; [0xed8] = 0x50004040
        0x00000d4a:    6011        .`      STR      r1,[r2,#0]
        0x00000d4c:    4611        .F      MOV      r1,r2
        0x00000d4e:    6809        .h      LDR      r1,[r1,#0]
        0x00000d50:    6011        .`      STR      r1,[r2,#0]
        0x00000d52:    2101        .!      MOVS     r1,#1
        0x00000d54:    4a61        aJ      LDR      r2,[pc,#388] ; [0xedc] = 0x2000004c
        0x00000d56:    6111        .a      STR      r1,[r2,#0x10]
        0x00000d58:    e095        ..      B        0xe86 ; Init_ADC + 950
        0x00000d5a:    e063        c.      B        0xe24 ; Init_ADC + 852
        0x00000d5c:    e031        1.      B        0xdc2 ; Init_ADC + 754
        0x00000d5e:    e7ff        ..      B        0xd60 ; Init_ADC + 656
        0x00000d60:    495c        \I      LDR      r1,[pc,#368] ; [0xed4] = 0x400e0000
        0x00000d62:    6a49        Ij      LDR      r1,[r1,#0x24]
        0x00000d64:    2220         "      MOVS     r2,#0x20
        0x00000d66:    4311        .C      ORRS     r1,r1,r2
        0x00000d68:    4a5a        ZJ      LDR      r2,[pc,#360] ; [0xed4] = 0x400e0000
        0x00000d6a:    6251        Qb      STR      r1,[r2,#0x24]
        0x00000d6c:    2105        .!      MOVS     r1,#5
        0x00000d6e:    0709        ..      LSLS     r1,r1,#28
        0x00000d70:    6b49        Ik      LDR      r1,[r1,#0x34]
        0x00000d72:    4a5f        _J      LDR      r2,[pc,#380] ; [0xef0] = 0xffffdfdf
        0x00000d74:    4011        .@      ANDS     r1,r1,r2
        0x00000d76:    2205        ."      MOVS     r2,#5
        0x00000d78:    0712        ..      LSLS     r2,r2,#28
        0x00000d7a:    6351        Qc      STR      r1,[r2,#0x34]
        0x00000d7c:    4611        .F      MOV      r1,r2
        0x00000d7e:    6b49        Ik      LDR      r1,[r1,#0x34]
        0x00000d80:    2220         "      MOVS     r2,#0x20
        0x00000d82:    4311        .C      ORRS     r1,r1,r2
        0x00000d84:    2205        ."      MOVS     r2,#5
        0x00000d86:    0712        ..      LSLS     r2,r2,#28
        0x00000d88:    6351        Qc      STR      r1,[r2,#0x34]
        0x00000d8a:    4953        SI      LDR      r1,[pc,#332] ; [0xed8] = 0x50004040
        0x00000d8c:    6849        Ih      LDR      r1,[r1,#4]
        0x00000d8e:    2201        ."      MOVS     r2,#1
        0x00000d90:    0552        R.      LSLS     r2,r2,#21
        0x00000d92:    4391        .C      BICS     r1,r1,r2
        0x00000d94:    4a50        PJ      LDR      r2,[pc,#320] ; [0xed8] = 0x50004040
        0x00000d96:    6051        Q`      STR      r1,[r2,#4]
        0x00000d98:    4611        .F      MOV      r1,r2
        0x00000d9a:    6849        Ih      LDR      r1,[r1,#4]
        0x00000d9c:    2201        ."      MOVS     r2,#1
        0x00000d9e:    0552        R.      LSLS     r2,r2,#21
        0x00000da0:    4311        .C      ORRS     r1,r1,r2
        0x00000da2:    4a4d        MJ      LDR      r2,[pc,#308] ; [0xed8] = 0x50004040
        0x00000da4:    6051        Q`      STR      r1,[r2,#4]
        0x00000da6:    4611        .F      MOV      r1,r2
        0x00000da8:    6809        .h      LDR      r1,[r1,#0]
        0x00000daa:    2203        ."      MOVS     r2,#3
        0x00000dac:    0292        ..      LSLS     r2,r2,#10
        0x00000dae:    4391        .C      BICS     r1,r1,r2
        0x00000db0:    4a49        IJ      LDR      r2,[pc,#292] ; [0xed8] = 0x50004040
        0x00000db2:    6011        .`      STR      r1,[r2,#0]
        0x00000db4:    4611        .F      MOV      r1,r2
        0x00000db6:    6809        .h      LDR      r1,[r1,#0]
        0x00000db8:    6011        .`      STR      r1,[r2,#0]
        0x00000dba:    2101        .!      MOVS     r1,#1
        0x00000dbc:    4a47        GJ      LDR      r2,[pc,#284] ; [0xedc] = 0x2000004c
        0x00000dbe:    6151        Qa      STR      r1,[r2,#0x14]
        0x00000dc0:    e061        a.      B        0xe86 ; Init_ADC + 950
        0x00000dc2:    4944        DI      LDR      r1,[pc,#272] ; [0xed4] = 0x400e0000
        0x00000dc4:    6a49        Ij      LDR      r1,[r1,#0x24]
        0x00000dc6:    2240        @"      MOVS     r2,#0x40
        0x00000dc8:    4311        .C      ORRS     r1,r1,r2
        0x00000dca:    4a42        BJ      LDR      r2,[pc,#264] ; [0xed4] = 0x400e0000
        0x00000dcc:    6251        Qb      STR      r1,[r2,#0x24]
        0x00000dce:    2105        .!      MOVS     r1,#5
        0x00000dd0:    0709        ..      LSLS     r1,r1,#28
        0x00000dd2:    6b49        Ik      LDR      r1,[r1,#0x34]
        0x00000dd4:    4a47        GJ      LDR      r2,[pc,#284] ; [0xef4] = 0xffffbfbf
        0x00000dd6:    4011        .@      ANDS     r1,r1,r2
        0x00000dd8:    2205        ."      MOVS     r2,#5
        0x00000dda:    0712        ..      LSLS     r2,r2,#28
        0x00000ddc:    6351        Qc      STR      r1,[r2,#0x34]
        0x00000dde:    4611        .F      MOV      r1,r2
        0x00000de0:    6b49        Ik      LDR      r1,[r1,#0x34]
        0x00000de2:    2240        @"      MOVS     r2,#0x40
        0x00000de4:    4311        .C      ORRS     r1,r1,r2
        0x00000de6:    2205        ."      MOVS     r2,#5
        0x00000de8:    0712        ..      LSLS     r2,r2,#28
        0x00000dea:    6351        Qc      STR      r1,[r2,#0x34]
        0x00000dec:    493a        :I      LDR      r1,[pc,#232] ; [0xed8] = 0x50004040
        0x00000dee:    6849        Ih      LDR      r1,[r1,#4]
        0x00000df0:    2201        ."      MOVS     r2,#1
        0x00000df2:    0592        ..      LSLS     r2,r2,#22
        0x00000df4:    4391        .C      BICS     r1,r1,r2
        0x00000df6:    4a38        8J      LDR      r2,[pc,#224] ; [0xed8] = 0x50004040
        0x00000df8:    6051        Q`      STR      r1,[r2,#4]
        0x00000dfa:    4611        .F      MOV      r1,r2
        0x00000dfc:    6849        Ih      LDR      r1,[r1,#4]
        0x00000dfe:    2201        ."      MOVS     r2,#1
        0x00000e00:    0592        ..      LSLS     r2,r2,#22
        0x00000e02:    4311        .C      ORRS     r1,r1,r2
        0x00000e04:    4a34        4J      LDR      r2,[pc,#208] ; [0xed8] = 0x50004040
        0x00000e06:    6051        Q`      STR      r1,[r2,#4]
        0x00000e08:    4611        .F      MOV      r1,r2
        0x00000e0a:    6809        .h      LDR      r1,[r1,#0]
        0x00000e0c:    2203        ."      MOVS     r2,#3
        0x00000e0e:    0312        ..      LSLS     r2,r2,#12
        0x00000e10:    4391        .C      BICS     r1,r1,r2
        0x00000e12:    4a31        1J      LDR      r2,[pc,#196] ; [0xed8] = 0x50004040
        0x00000e14:    6011        .`      STR      r1,[r2,#0]
        0x00000e16:    4611        .F      MOV      r1,r2
        0x00000e18:    6809        .h      LDR      r1,[r1,#0]
        0x00000e1a:    6011        .`      STR      r1,[r2,#0]
        0x00000e1c:    2101        .!      MOVS     r1,#1
        0x00000e1e:    4a2f        /J      LDR      r2,[pc,#188] ; [0xedc] = 0x2000004c
        0x00000e20:    6191        .a      STR      r1,[r2,#0x18]
        0x00000e22:    e030        0.      B        0xe86 ; Init_ADC + 950
        0x00000e24:    492b        +I      LDR      r1,[pc,#172] ; [0xed4] = 0x400e0000
        0x00000e26:    6a49        Ij      LDR      r1,[r1,#0x24]
        0x00000e28:    2280        ."      MOVS     r2,#0x80
        0x00000e2a:    4311        .C      ORRS     r1,r1,r2
        0x00000e2c:    4a29        )J      LDR      r2,[pc,#164] ; [0xed4] = 0x400e0000
        0x00000e2e:    6251        Qb      STR      r1,[r2,#0x24]
        0x00000e30:    2105        .!      MOVS     r1,#5
        0x00000e32:    0709        ..      LSLS     r1,r1,#28
        0x00000e34:    6b49        Ik      LDR      r1,[r1,#0x34]
        0x00000e36:    4a30        0J      LDR      r2,[pc,#192] ; [0xef8] = 0xffff7f7f
        0x00000e38:    4011        .@      ANDS     r1,r1,r2
        0x00000e3a:    2205        ."      MOVS     r2,#5
        0x00000e3c:    0712        ..      LSLS     r2,r2,#28
        0x00000e3e:    6351        Qc      STR      r1,[r2,#0x34]
        0x00000e40:    4611        .F      MOV      r1,r2
        0x00000e42:    6b49        Ik      LDR      r1,[r1,#0x34]
        0x00000e44:    2280        ."      MOVS     r2,#0x80
        0x00000e46:    4311        .C      ORRS     r1,r1,r2
        0x00000e48:    2205        ."      MOVS     r2,#5
        0x00000e4a:    0712        ..      LSLS     r2,r2,#28
        0x00000e4c:    6351        Qc      STR      r1,[r2,#0x34]
        0x00000e4e:    4922        "I      LDR      r1,[pc,#136] ; [0xed8] = 0x50004040
        0x00000e50:    6849        Ih      LDR      r1,[r1,#4]
        0x00000e52:    2201        ."      MOVS     r2,#1
        0x00000e54:    05d2        ..      LSLS     r2,r2,#23
        0x00000e56:    4391        .C      BICS     r1,r1,r2
        0x00000e58:    4a1f        .J      LDR      r2,[pc,#124] ; [0xed8] = 0x50004040
        0x00000e5a:    6051        Q`      STR      r1,[r2,#4]
        0x00000e5c:    4611        .F      MOV      r1,r2
        0x00000e5e:    6849        Ih      LDR      r1,[r1,#4]
        0x00000e60:    2201        ."      MOVS     r2,#1
        0x00000e62:    05d2        ..      LSLS     r2,r2,#23
        0x00000e64:    4311        .C      ORRS     r1,r1,r2
        0x00000e66:    4a1c        .J      LDR      r2,[pc,#112] ; [0xed8] = 0x50004040
        0x00000e68:    6051        Q`      STR      r1,[r2,#4]
        0x00000e6a:    4611        .F      MOV      r1,r2
        0x00000e6c:    6809        .h      LDR      r1,[r1,#0]
        0x00000e6e:    2203        ."      MOVS     r2,#3
        0x00000e70:    0392        ..      LSLS     r2,r2,#14
        0x00000e72:    4391        .C      BICS     r1,r1,r2
        0x00000e74:    4a18        .J      LDR      r2,[pc,#96] ; [0xed8] = 0x50004040
        0x00000e76:    6011        .`      STR      r1,[r2,#0]
        0x00000e78:    4611        .F      MOV      r1,r2
        0x00000e7a:    6809        .h      LDR      r1,[r1,#0]
        0x00000e7c:    6011        .`      STR      r1,[r2,#0]
        0x00000e7e:    2101        .!      MOVS     r1,#1
        0x00000e80:    4a16        .J      LDR      r2,[pc,#88] ; [0xedc] = 0x2000004c
        0x00000e82:    61d1        .a      STR      r1,[r2,#0x1c]
        0x00000e84:    bf00        ..      NOP      
        0x00000e86:    bf00        ..      NOP      
        0x00000e88:    4912        .I      LDR      r1,[pc,#72] ; [0xed4] = 0x400e0000
        0x00000e8a:    6b09        .k      LDR      r1,[r1,#0x30]
        0x00000e8c:    2201        ."      MOVS     r2,#1
        0x00000e8e:    4311        .C      ORRS     r1,r1,r2
        0x00000e90:    4a10        .J      LDR      r2,[pc,#64] ; [0xed4] = 0x400e0000
        0x00000e92:    6311        .c      STR      r1,[r2,#0x30]
        0x00000e94:    4611        .F      MOV      r1,r2
        0x00000e96:    6a09        .j      LDR      r1,[r1,#0x20]
        0x00000e98:    2201        ."      MOVS     r2,#1
        0x00000e9a:    02d2        ..      LSLS     r2,r2,#11
        0x00000e9c:    4311        .C      ORRS     r1,r1,r2
        0x00000e9e:    4a0d        .J      LDR      r2,[pc,#52] ; [0xed4] = 0x400e0000
        0x00000ea0:    6211        .b      STR      r1,[r2,#0x20]
        0x00000ea2:    bd00        ..      POP      {pc}
    UpdateAnalogRead
        0x00000ea4:    bf00        ..      NOP      
        0x00000ea6:    480b        .H      LDR      r0,[pc,#44] ; [0xed4] = 0x400e0000
        0x00000ea8:    6b00        .k      LDR      r0,[r0,#0x30]
        0x00000eaa:    2000        .       MOVS     r0,#0
        0x00000eac:    2800        .(      CMP      r0,#0
        0x00000eae:    d1fa        ..      BNE      0xea6 ; UpdateAnalogRead + 2
        0x00000eb0:    4808        .H      LDR      r0,[pc,#32] ; [0xed4] = 0x400e0000
        0x00000eb2:    6b00        .k      LDR      r0,[r0,#0x30]
        0x00000eb4:    2101        .!      MOVS     r1,#1
        0x00000eb6:    4308        .C      ORRS     r0,r0,r1
        0x00000eb8:    4906        .I      LDR      r1,[pc,#24] ; [0xed4] = 0x400e0000
        0x00000eba:    6308        .c      STR      r0,[r1,#0x30]
        0x00000ebc:    4807        .H      LDR      r0,[pc,#28] ; [0xedc] = 0x2000004c
        0x00000ebe:    6800        .h      LDR      r0,[r0,#0]
        0x00000ec0:    2801        .(      CMP      r0,#1
        0x00000ec2:    d11e        ..      BNE      0xf02 ; UpdateAnalogRead + 94
        0x00000ec4:    4608        .F      MOV      r0,r1
        0x00000ec6:    6800        .h      LDR      r0,[r0,#0]
        0x00000ec8:    0500        ..      LSLS     r0,r0,#20
        0x00000eca:    e017        ..      B        0xefc ; UpdateAnalogRead + 88
    $d
        0x00000ecc:    20000040    @..     DCD    536870976
        0x00000ed0:    50000200    ...P    DCD    1342177792
        0x00000ed4:    400e0000    ...@    DCD    1074659328
        0x00000ed8:    50004040    @@.P    DCD    1342193728
        0x00000edc:    2000004c    L..     DCD    536870988
        0x00000ee0:    fffffdfd    ....    DCD    4294966781
        0x00000ee4:    fffffbfb    ....    DCD    4294966267
        0x00000ee8:    fffff7f7    ....    DCD    4294965239
        0x00000eec:    ffffefef    ....    DCD    4294963183
        0x00000ef0:    ffffdfdf    ....    DCD    4294959071
        0x00000ef4:    ffffbfbf    ....    DCD    4294950847
        0x00000ef8:    ffff7f7f    ....    DCD    4294934399
    $t
        0x00000efc:    0d00        ..      LSRS     r0,r0,#20
        0x00000efe:    494c        LI      LDR      r1,[pc,#304] ; [0x1030] = 0x2000006c
        0x00000f00:    6008        .`      STR      r0,[r1,#0]
        0x00000f02:    484c        LH      LDR      r0,[pc,#304] ; [0x1034] = 0x2000004c
        0x00000f04:    6840        @h      LDR      r0,[r0,#4]
        0x00000f06:    2801        .(      CMP      r0,#1
        0x00000f08:    d105        ..      BNE      0xf16 ; UpdateAnalogRead + 114
        0x00000f0a:    484b        KH      LDR      r0,[pc,#300] ; [0x1038] = 0x400e0000
        0x00000f0c:    6840        @h      LDR      r0,[r0,#4]
        0x00000f0e:    0500        ..      LSLS     r0,r0,#20
        0x00000f10:    0d00        ..      LSRS     r0,r0,#20
        0x00000f12:    4947        GI      LDR      r1,[pc,#284] ; [0x1030] = 0x2000006c
        0x00000f14:    6048        H`      STR      r0,[r1,#4]
        0x00000f16:    4847        GH      LDR      r0,[pc,#284] ; [0x1034] = 0x2000004c
        0x00000f18:    6880        .h      LDR      r0,[r0,#8]
        0x00000f1a:    2801        .(      CMP      r0,#1
        0x00000f1c:    d105        ..      BNE      0xf2a ; UpdateAnalogRead + 134
        0x00000f1e:    4846        FH      LDR      r0,[pc,#280] ; [0x1038] = 0x400e0000
        0x00000f20:    6880        .h      LDR      r0,[r0,#8]
        0x00000f22:    0500        ..      LSLS     r0,r0,#20
        0x00000f24:    0d00        ..      LSRS     r0,r0,#20
        0x00000f26:    4942        BI      LDR      r1,[pc,#264] ; [0x1030] = 0x2000006c
        0x00000f28:    6088        .`      STR      r0,[r1,#8]
        0x00000f2a:    4842        BH      LDR      r0,[pc,#264] ; [0x1034] = 0x2000004c
        0x00000f2c:    68c0        .h      LDR      r0,[r0,#0xc]
        0x00000f2e:    2801        .(      CMP      r0,#1
        0x00000f30:    d105        ..      BNE      0xf3e ; UpdateAnalogRead + 154
        0x00000f32:    4841        AH      LDR      r0,[pc,#260] ; [0x1038] = 0x400e0000
        0x00000f34:    68c0        .h      LDR      r0,[r0,#0xc]
        0x00000f36:    0500        ..      LSLS     r0,r0,#20
        0x00000f38:    0d00        ..      LSRS     r0,r0,#20
        0x00000f3a:    493d        =I      LDR      r1,[pc,#244] ; [0x1030] = 0x2000006c
        0x00000f3c:    60c8        .`      STR      r0,[r1,#0xc]
        0x00000f3e:    483d        =H      LDR      r0,[pc,#244] ; [0x1034] = 0x2000004c
        0x00000f40:    6900        .i      LDR      r0,[r0,#0x10]
        0x00000f42:    2801        .(      CMP      r0,#1
        0x00000f44:    d105        ..      BNE      0xf52 ; UpdateAnalogRead + 174
        0x00000f46:    483c        <H      LDR      r0,[pc,#240] ; [0x1038] = 0x400e0000
        0x00000f48:    6900        .i      LDR      r0,[r0,#0x10]
        0x00000f4a:    0500        ..      LSLS     r0,r0,#20
        0x00000f4c:    0d00        ..      LSRS     r0,r0,#20
        0x00000f4e:    4938        8I      LDR      r1,[pc,#224] ; [0x1030] = 0x2000006c
        0x00000f50:    6108        .a      STR      r0,[r1,#0x10]
        0x00000f52:    4838        8H      LDR      r0,[pc,#224] ; [0x1034] = 0x2000004c
        0x00000f54:    6940        @i      LDR      r0,[r0,#0x14]
        0x00000f56:    2801        .(      CMP      r0,#1
        0x00000f58:    d105        ..      BNE      0xf66 ; UpdateAnalogRead + 194
        0x00000f5a:    4837        7H      LDR      r0,[pc,#220] ; [0x1038] = 0x400e0000
        0x00000f5c:    6940        @i      LDR      r0,[r0,#0x14]
        0x00000f5e:    0500        ..      LSLS     r0,r0,#20
        0x00000f60:    0d00        ..      LSRS     r0,r0,#20
        0x00000f62:    4933        3I      LDR      r1,[pc,#204] ; [0x1030] = 0x2000006c
        0x00000f64:    6148        Ha      STR      r0,[r1,#0x14]
        0x00000f66:    4833        3H      LDR      r0,[pc,#204] ; [0x1034] = 0x2000004c
        0x00000f68:    6980        .i      LDR      r0,[r0,#0x18]
        0x00000f6a:    2801        .(      CMP      r0,#1
        0x00000f6c:    d105        ..      BNE      0xf7a ; UpdateAnalogRead + 214
        0x00000f6e:    4832        2H      LDR      r0,[pc,#200] ; [0x1038] = 0x400e0000
        0x00000f70:    6980        .i      LDR      r0,[r0,#0x18]
        0x00000f72:    0500        ..      LSLS     r0,r0,#20
        0x00000f74:    0d00        ..      LSRS     r0,r0,#20
        0x00000f76:    492e        .I      LDR      r1,[pc,#184] ; [0x1030] = 0x2000006c
        0x00000f78:    6188        .a      STR      r0,[r1,#0x18]
        0x00000f7a:    482e        .H      LDR      r0,[pc,#184] ; [0x1034] = 0x2000004c
        0x00000f7c:    69c0        .i      LDR      r0,[r0,#0x1c]
        0x00000f7e:    2801        .(      CMP      r0,#1
        0x00000f80:    d105        ..      BNE      0xf8e ; UpdateAnalogRead + 234
        0x00000f82:    482d        -H      LDR      r0,[pc,#180] ; [0x1038] = 0x400e0000
        0x00000f84:    69c0        .i      LDR      r0,[r0,#0x1c]
        0x00000f86:    0500        ..      LSLS     r0,r0,#20
        0x00000f88:    0d00        ..      LSRS     r0,r0,#20
        0x00000f8a:    4929        )I      LDR      r1,[pc,#164] ; [0x1030] = 0x2000006c
        0x00000f8c:    61c8        .a      STR      r0,[r1,#0x1c]
        0x00000f8e:    4770        pG      BX       lr
    analogRead
        0x00000f90:    4601        .F      MOV      r1,r0
        0x00000f92:    0088        ..      LSLS     r0,r1,#2
        0x00000f94:    4a26        &J      LDR      r2,[pc,#152] ; [0x1030] = 0x2000006c
        0x00000f96:    5810        .X      LDR      r0,[r2,r0]
        0x00000f98:    4770        pG      BX       lr
    Outputs4Debugging_ADC
        0x00000f9a:    b510        ..      PUSH     {r4,lr}
        0x00000f9c:    4825        %H      LDR      r0,[pc,#148] ; [0x1034] = 0x2000004c
        0x00000f9e:    6800        .h      LDR      r0,[r0,#0]
        0x00000fa0:    2801        .(      CMP      r0,#1
        0x00000fa2:    d104        ..      BNE      0xfae ; Outputs4Debugging_ADC + 20
        0x00000fa4:    4822        "H      LDR      r0,[pc,#136] ; [0x1030] = 0x2000006c
        0x00000fa6:    6801        .h      LDR      r1,[r0,#0]
        0x00000fa8:    a024        $.      ADR      r0,{pc}+0x94 ; 0x103c
        0x00000faa:    f000fe7b    ..{.    BL       __2printf ; 0x1ca4
        0x00000fae:    4821        !H      LDR      r0,[pc,#132] ; [0x1034] = 0x2000004c
        0x00000fb0:    6840        @h      LDR      r0,[r0,#4]
        0x00000fb2:    2801        .(      CMP      r0,#1
        0x00000fb4:    d104        ..      BNE      0xfc0 ; Outputs4Debugging_ADC + 38
        0x00000fb6:    481e        .H      LDR      r0,[pc,#120] ; [0x1030] = 0x2000006c
        0x00000fb8:    6841        Ah      LDR      r1,[r0,#4]
        0x00000fba:    a020         .      ADR      r0,{pc}+0x82 ; 0x103c
        0x00000fbc:    f000fe72    ..r.    BL       __2printf ; 0x1ca4
        0x00000fc0:    481c        .H      LDR      r0,[pc,#112] ; [0x1034] = 0x2000004c
        0x00000fc2:    6880        .h      LDR      r0,[r0,#8]
        0x00000fc4:    2801        .(      CMP      r0,#1
        0x00000fc6:    d104        ..      BNE      0xfd2 ; Outputs4Debugging_ADC + 56
        0x00000fc8:    4819        .H      LDR      r0,[pc,#100] ; [0x1030] = 0x2000006c
        0x00000fca:    6881        .h      LDR      r1,[r0,#8]
        0x00000fcc:    a01b        ..      ADR      r0,{pc}+0x70 ; 0x103c
        0x00000fce:    f000fe69    ..i.    BL       __2printf ; 0x1ca4
        0x00000fd2:    4818        .H      LDR      r0,[pc,#96] ; [0x1034] = 0x2000004c
        0x00000fd4:    68c0        .h      LDR      r0,[r0,#0xc]
        0x00000fd6:    2801        .(      CMP      r0,#1
        0x00000fd8:    d104        ..      BNE      0xfe4 ; Outputs4Debugging_ADC + 74
        0x00000fda:    4815        .H      LDR      r0,[pc,#84] ; [0x1030] = 0x2000006c
        0x00000fdc:    68c1        .h      LDR      r1,[r0,#0xc]
        0x00000fde:    a017        ..      ADR      r0,{pc}+0x5e ; 0x103c
        0x00000fe0:    f000fe60    ..`.    BL       __2printf ; 0x1ca4
        0x00000fe4:    4813        .H      LDR      r0,[pc,#76] ; [0x1034] = 0x2000004c
        0x00000fe6:    6900        .i      LDR      r0,[r0,#0x10]
        0x00000fe8:    2801        .(      CMP      r0,#1
        0x00000fea:    d104        ..      BNE      0xff6 ; Outputs4Debugging_ADC + 92
        0x00000fec:    4810        .H      LDR      r0,[pc,#64] ; [0x1030] = 0x2000006c
        0x00000fee:    6901        .i      LDR      r1,[r0,#0x10]
        0x00000ff0:    a012        ..      ADR      r0,{pc}+0x4c ; 0x103c
        0x00000ff2:    f000fe57    ..W.    BL       __2printf ; 0x1ca4
        0x00000ff6:    480f        .H      LDR      r0,[pc,#60] ; [0x1034] = 0x2000004c
        0x00000ff8:    6940        @i      LDR      r0,[r0,#0x14]
        0x00000ffa:    2801        .(      CMP      r0,#1
        0x00000ffc:    d104        ..      BNE      0x1008 ; Outputs4Debugging_ADC + 110
        0x00000ffe:    480c        .H      LDR      r0,[pc,#48] ; [0x1030] = 0x2000006c
        0x00001000:    6941        Ai      LDR      r1,[r0,#0x14]
        0x00001002:    a00e        ..      ADR      r0,{pc}+0x3a ; 0x103c
        0x00001004:    f000fe4e    ..N.    BL       __2printf ; 0x1ca4
        0x00001008:    480a        .H      LDR      r0,[pc,#40] ; [0x1034] = 0x2000004c
        0x0000100a:    6980        .i      LDR      r0,[r0,#0x18]
        0x0000100c:    2801        .(      CMP      r0,#1
        0x0000100e:    d104        ..      BNE      0x101a ; Outputs4Debugging_ADC + 128
        0x00001010:    4807        .H      LDR      r0,[pc,#28] ; [0x1030] = 0x2000006c
        0x00001012:    6981        .i      LDR      r1,[r0,#0x18]
        0x00001014:    a009        ..      ADR      r0,{pc}+0x28 ; 0x103c
        0x00001016:    f000fe45    ..E.    BL       __2printf ; 0x1ca4
        0x0000101a:    4806        .H      LDR      r0,[pc,#24] ; [0x1034] = 0x2000004c
        0x0000101c:    69c0        .i      LDR      r0,[r0,#0x1c]
        0x0000101e:    2801        .(      CMP      r0,#1
        0x00001020:    d104        ..      BNE      0x102c ; Outputs4Debugging_ADC + 146
        0x00001022:    4803        .H      LDR      r0,[pc,#12] ; [0x1030] = 0x2000006c
        0x00001024:    69c1        .i      LDR      r1,[r0,#0x1c]
        0x00001026:    a005        ..      ADR      r0,{pc}+0x16 ; 0x103c
        0x00001028:    f000fe3c    ..<.    BL       __2printf ; 0x1ca4
        0x0000102c:    bd10        ..      POP      {r4,pc}
    $d
        0x0000102e:    0000        ..      DCW    0
        0x00001030:    2000006c    l..     DCD    536871020
        0x00001034:    2000004c    L..     DCD    536870988
        0x00001038:    400e0000    ...@    DCD    1074659328
        0x0000103c:    00096425    %d..    DCD    615461
    $t
    .text
    Init_PWM
        0x00001040:    b500        ..      PUSH     {lr}
        0x00001042:    0003        ..      MOVS     r3,r0
        0x00001044:    f002fc89    ....    BL       __ARM_common_switch8 ; 0x395a
    $d
        0x00001048:    40230508    ..#@    DCD    1076036872
        0x0000104c:    b8997a5d    ]z..    DCD    3097066077
        0x00001050:    f6d7        ..      DCW    63191
    $t
        0x00001052:    2105        .!      MOVS     r1,#5
        0x00001054:    0709        ..      LSLS     r1,r1,#28
        0x00001056:    6b89        .k      LDR      r1,[r1,#0x38]
        0x00001058:    22ff        ."      MOVS     r2,#0xff
        0x0000105a:    3202        .2      ADDS     r2,#2
        0x0000105c:    4391        .C      BICS     r1,r1,r2
        0x0000105e:    2205        ."      MOVS     r2,#5
        0x00001060:    0712        ..      LSLS     r2,r2,#28
        0x00001062:    6391        .c      STR      r1,[r2,#0x38]
        0x00001064:    4611        .F      MOV      r1,r2
        0x00001066:    6b89        .k      LDR      r1,[r1,#0x38]
        0x00001068:    22ff        ."      MOVS     r2,#0xff
        0x0000106a:    3201        .2      ADDS     r2,#1
        0x0000106c:    4311        .C      ORRS     r1,r1,r2
        0x0000106e:    2205        ."      MOVS     r2,#5
        0x00001070:    0712        ..      LSLS     r2,r2,#28
        0x00001072:    6391        .c      STR      r1,[r2,#0x38]
        0x00001074:    49e4        .I      LDR      r1,[pc,#912] ; [0x1408] = 0x50004080
        0x00001076:    6809        .h      LDR      r1,[r1,#0]
        0x00001078:    0889        ..      LSRS     r1,r1,#2
        0x0000107a:    0089        ..      LSLS     r1,r1,#2
        0x0000107c:    4ae2        .J      LDR      r2,[pc,#904] ; [0x1408] = 0x50004080
        0x0000107e:    6011        .`      STR      r1,[r2,#0]
        0x00001080:    4611        .F      MOV      r1,r2
        0x00001082:    6809        .h      LDR      r1,[r1,#0]
        0x00001084:    2201        ."      MOVS     r2,#1
        0x00001086:    4311        .C      ORRS     r1,r1,r2
        0x00001088:    4adf        .J      LDR      r2,[pc,#892] ; [0x1408] = 0x50004080
        0x0000108a:    6011        .`      STR      r1,[r2,#0]
        0x0000108c:    e0d2        ..      B        0x1234 ; Init_PWM + 500
        0x0000108e:    2105        .!      MOVS     r1,#5
        0x00001090:    0709        ..      LSLS     r1,r1,#28
        0x00001092:    6b89        .k      LDR      r1,[r1,#0x38]
        0x00001094:    4add        .J      LDR      r2,[pc,#884] ; [0x140c] = 0xfffffdfd
        0x00001096:    4011        .@      ANDS     r1,r1,r2
        0x00001098:    2205        ."      MOVS     r2,#5
        0x0000109a:    0712        ..      LSLS     r2,r2,#28
        0x0000109c:    6391        .c      STR      r1,[r2,#0x38]
        0x0000109e:    4611        .F      MOV      r1,r2
        0x000010a0:    6b89        .k      LDR      r1,[r1,#0x38]
        0x000010a2:    2201        ."      MOVS     r2,#1
        0x000010a4:    0252        R.      LSLS     r2,r2,#9
        0x000010a6:    4311        .C      ORRS     r1,r1,r2
        0x000010a8:    2205        ."      MOVS     r2,#5
        0x000010aa:    0712        ..      LSLS     r2,r2,#28
        0x000010ac:    6391        .c      STR      r1,[r2,#0x38]
        0x000010ae:    49d6        .I      LDR      r1,[pc,#856] ; [0x1408] = 0x50004080
        0x000010b0:    6809        .h      LDR      r1,[r1,#0]
        0x000010b2:    220c        ."      MOVS     r2,#0xc
        0x000010b4:    4391        .C      BICS     r1,r1,r2
        0x000010b6:    4ad4        .J      LDR      r2,[pc,#848] ; [0x1408] = 0x50004080
        0x000010b8:    6011        .`      STR      r1,[r2,#0]
        0x000010ba:    4611        .F      MOV      r1,r2
        0x000010bc:    6809        .h      LDR      r1,[r1,#0]
        0x000010be:    2204        ."      MOVS     r2,#4
        0x000010c0:    4311        .C      ORRS     r1,r1,r2
        0x000010c2:    4ad1        .J      LDR      r2,[pc,#836] ; [0x1408] = 0x50004080
        0x000010c4:    6011        .`      STR      r1,[r2,#0]
        0x000010c6:    e0b5        ..      B        0x1234 ; Init_PWM + 500
        0x000010c8:    2105        .!      MOVS     r1,#5
        0x000010ca:    0709        ..      LSLS     r1,r1,#28
        0x000010cc:    6b89        .k      LDR      r1,[r1,#0x38]
        0x000010ce:    4ad0        .J      LDR      r2,[pc,#832] ; [0x1410] = 0xfffffbfb
        0x000010d0:    4011        .@      ANDS     r1,r1,r2
        0x000010d2:    2205        ."      MOVS     r2,#5
        0x000010d4:    0712        ..      LSLS     r2,r2,#28
        0x000010d6:    6391        .c      STR      r1,[r2,#0x38]
        0x000010d8:    4611        .F      MOV      r1,r2
        0x000010da:    6b89        .k      LDR      r1,[r1,#0x38]
        0x000010dc:    2201        ."      MOVS     r2,#1
        0x000010de:    0292        ..      LSLS     r2,r2,#10
        0x000010e0:    4311        .C      ORRS     r1,r1,r2
        0x000010e2:    2205        ."      MOVS     r2,#5
        0x000010e4:    0712        ..      LSLS     r2,r2,#28
        0x000010e6:    6391        .c      STR      r1,[r2,#0x38]
        0x000010e8:    49c7        .I      LDR      r1,[pc,#796] ; [0x1408] = 0x50004080
        0x000010ea:    6809        .h      LDR      r1,[r1,#0]
        0x000010ec:    2230        0"      MOVS     r2,#0x30
        0x000010ee:    4391        .C      BICS     r1,r1,r2
        0x000010f0:    4ac5        .J      LDR      r2,[pc,#788] ; [0x1408] = 0x50004080
        0x000010f2:    6011        .`      STR      r1,[r2,#0]
        0x000010f4:    4611        .F      MOV      r1,r2
        0x000010f6:    6809        .h      LDR      r1,[r1,#0]
        0x000010f8:    2210        ."      MOVS     r2,#0x10
        0x000010fa:    4311        .C      ORRS     r1,r1,r2
        0x000010fc:    4ac2        .J      LDR      r2,[pc,#776] ; [0x1408] = 0x50004080
        0x000010fe:    6011        .`      STR      r1,[r2,#0]
        0x00001100:    e098        ..      B        0x1234 ; Init_PWM + 500
        0x00001102:    2105        .!      MOVS     r1,#5
        0x00001104:    0709        ..      LSLS     r1,r1,#28
        0x00001106:    6b89        .k      LDR      r1,[r1,#0x38]
        0x00001108:    4ac2        .J      LDR      r2,[pc,#776] ; [0x1414] = 0xfffff7f7
        0x0000110a:    4011        .@      ANDS     r1,r1,r2
        0x0000110c:    2205        ."      MOVS     r2,#5
        0x0000110e:    0712        ..      LSLS     r2,r2,#28
        0x00001110:    6391        .c      STR      r1,[r2,#0x38]
        0x00001112:    4611        .F      MOV      r1,r2
        0x00001114:    6b89        .k      LDR      r1,[r1,#0x38]
        0x00001116:    2201        ."      MOVS     r2,#1
        0x00001118:    02d2        ..      LSLS     r2,r2,#11
        0x0000111a:    4311        .C      ORRS     r1,r1,r2
        0x0000111c:    2205        ."      MOVS     r2,#5
        0x0000111e:    0712        ..      LSLS     r2,r2,#28
        0x00001120:    6391        .c      STR      r1,[r2,#0x38]
        0x00001122:    49b9        .I      LDR      r1,[pc,#740] ; [0x1408] = 0x50004080
        0x00001124:    6809        .h      LDR      r1,[r1,#0]
        0x00001126:    22c0        ."      MOVS     r2,#0xc0
        0x00001128:    4391        .C      BICS     r1,r1,r2
        0x0000112a:    4ab7        .J      LDR      r2,[pc,#732] ; [0x1408] = 0x50004080
        0x0000112c:    6011        .`      STR      r1,[r2,#0]
        0x0000112e:    4611        .F      MOV      r1,r2
        0x00001130:    6809        .h      LDR      r1,[r1,#0]
        0x00001132:    2240        @"      MOVS     r2,#0x40
        0x00001134:    4311        .C      ORRS     r1,r1,r2
        0x00001136:    4ab4        .J      LDR      r2,[pc,#720] ; [0x1408] = 0x50004080
        0x00001138:    6011        .`      STR      r1,[r2,#0]
        0x0000113a:    e07b        {.      B        0x1234 ; Init_PWM + 500
        0x0000113c:    2105        .!      MOVS     r1,#5
        0x0000113e:    0709        ..      LSLS     r1,r1,#28
        0x00001140:    6b89        .k      LDR      r1,[r1,#0x38]
        0x00001142:    4ab5        .J      LDR      r2,[pc,#724] ; [0x1418] = 0xffffefef
        0x00001144:    4011        .@      ANDS     r1,r1,r2
        0x00001146:    2205        ."      MOVS     r2,#5
        0x00001148:    0712        ..      LSLS     r2,r2,#28
        0x0000114a:    6391        .c      STR      r1,[r2,#0x38]
        0x0000114c:    4611        .F      MOV      r1,r2
        0x0000114e:    6b89        .k      LDR      r1,[r1,#0x38]
        0x00001150:    2201        ."      MOVS     r2,#1
        0x00001152:    0312        ..      LSLS     r2,r2,#12
        0x00001154:    4311        .C      ORRS     r1,r1,r2
        0x00001156:    2205        ."      MOVS     r2,#5
        0x00001158:    0712        ..      LSLS     r2,r2,#28
        0x0000115a:    6391        .c      STR      r1,[r2,#0x38]
        0x0000115c:    49aa        .I      LDR      r1,[pc,#680] ; [0x1408] = 0x50004080
        0x0000115e:    6809        .h      LDR      r1,[r1,#0]
        0x00001160:    2203        ."      MOVS     r2,#3
        0x00001162:    0212        ..      LSLS     r2,r2,#8
        0x00001164:    4391        .C      BICS     r1,r1,r2
        0x00001166:    4aa8        .J      LDR      r2,[pc,#672] ; [0x1408] = 0x50004080
        0x00001168:    6011        .`      STR      r1,[r2,#0]
        0x0000116a:    4611        .F      MOV      r1,r2
        0x0000116c:    6809        .h      LDR      r1,[r1,#0]
        0x0000116e:    22ff        ."      MOVS     r2,#0xff
        0x00001170:    3201        .2      ADDS     r2,#1
        0x00001172:    4311        .C      ORRS     r1,r1,r2
        0x00001174:    4aa4        .J      LDR      r2,[pc,#656] ; [0x1408] = 0x50004080
        0x00001176:    6011        .`      STR      r1,[r2,#0]
        0x00001178:    e05c        \.      B        0x1234 ; Init_PWM + 500
        0x0000117a:    2105        .!      MOVS     r1,#5
        0x0000117c:    0709        ..      LSLS     r1,r1,#28
        0x0000117e:    6b89        .k      LDR      r1,[r1,#0x38]
        0x00001180:    4aa6        .J      LDR      r2,[pc,#664] ; [0x141c] = 0xffffdfdf
        0x00001182:    4011        .@      ANDS     r1,r1,r2
        0x00001184:    2205        ."      MOVS     r2,#5
        0x00001186:    0712        ..      LSLS     r2,r2,#28
        0x00001188:    6391        .c      STR      r1,[r2,#0x38]
        0x0000118a:    4611        .F      MOV      r1,r2
        0x0000118c:    6b89        .k      LDR      r1,[r1,#0x38]
        0x0000118e:    2201        ."      MOVS     r2,#1
        0x00001190:    0352        R.      LSLS     r2,r2,#13
        0x00001192:    4311        .C      ORRS     r1,r1,r2
        0x00001194:    2205        ."      MOVS     r2,#5
        0x00001196:    0712        ..      LSLS     r2,r2,#28
        0x00001198:    6391        .c      STR      r1,[r2,#0x38]
        0x0000119a:    499b        .I      LDR      r1,[pc,#620] ; [0x1408] = 0x50004080
        0x0000119c:    6809        .h      LDR      r1,[r1,#0]
        0x0000119e:    2203        ."      MOVS     r2,#3
        0x000011a0:    0292        ..      LSLS     r2,r2,#10
        0x000011a2:    4391        .C      BICS     r1,r1,r2
        0x000011a4:    4a98        .J      LDR      r2,[pc,#608] ; [0x1408] = 0x50004080
        0x000011a6:    6011        .`      STR      r1,[r2,#0]
        0x000011a8:    4611        .F      MOV      r1,r2
        0x000011aa:    6809        .h      LDR      r1,[r1,#0]
        0x000011ac:    2201        ."      MOVS     r2,#1
        0x000011ae:    0292        ..      LSLS     r2,r2,#10
        0x000011b0:    4311        .C      ORRS     r1,r1,r2
        0x000011b2:    4a95        .J      LDR      r2,[pc,#596] ; [0x1408] = 0x50004080
        0x000011b4:    6011        .`      STR      r1,[r2,#0]
        0x000011b6:    e03d        =.      B        0x1234 ; Init_PWM + 500
        0x000011b8:    2105        .!      MOVS     r1,#5
        0x000011ba:    0709        ..      LSLS     r1,r1,#28
        0x000011bc:    6b89        .k      LDR      r1,[r1,#0x38]
        0x000011be:    4a98        .J      LDR      r2,[pc,#608] ; [0x1420] = 0xffffbfbf
        0x000011c0:    4011        .@      ANDS     r1,r1,r2
        0x000011c2:    2205        ."      MOVS     r2,#5
        0x000011c4:    0712        ..      LSLS     r2,r2,#28
        0x000011c6:    6391        .c      STR      r1,[r2,#0x38]
        0x000011c8:    4611        .F      MOV      r1,r2
        0x000011ca:    6b89        .k      LDR      r1,[r1,#0x38]
        0x000011cc:    2201        ."      MOVS     r2,#1
        0x000011ce:    0392        ..      LSLS     r2,r2,#14
        0x000011d0:    4311        .C      ORRS     r1,r1,r2
        0x000011d2:    2205        ."      MOVS     r2,#5
        0x000011d4:    0712        ..      LSLS     r2,r2,#28
        0x000011d6:    6391        .c      STR      r1,[r2,#0x38]
        0x000011d8:    498b        .I      LDR      r1,[pc,#556] ; [0x1408] = 0x50004080
        0x000011da:    6809        .h      LDR      r1,[r1,#0]
        0x000011dc:    2203        ."      MOVS     r2,#3
        0x000011de:    0312        ..      LSLS     r2,r2,#12
        0x000011e0:    4391        .C      BICS     r1,r1,r2
        0x000011e2:    4a89        .J      LDR      r2,[pc,#548] ; [0x1408] = 0x50004080
        0x000011e4:    6011        .`      STR      r1,[r2,#0]
        0x000011e6:    4611        .F      MOV      r1,r2
        0x000011e8:    6809        .h      LDR      r1,[r1,#0]
        0x000011ea:    2201        ."      MOVS     r2,#1
        0x000011ec:    0312        ..      LSLS     r2,r2,#12
        0x000011ee:    4311        .C      ORRS     r1,r1,r2
        0x000011f0:    4a85        .J      LDR      r2,[pc,#532] ; [0x1408] = 0x50004080
        0x000011f2:    6011        .`      STR      r1,[r2,#0]
        0x000011f4:    e01e        ..      B        0x1234 ; Init_PWM + 500
        0x000011f6:    2105        .!      MOVS     r1,#5
        0x000011f8:    0709        ..      LSLS     r1,r1,#28
        0x000011fa:    6b89        .k      LDR      r1,[r1,#0x38]
        0x000011fc:    4a89        .J      LDR      r2,[pc,#548] ; [0x1424] = 0xffff7f7f
        0x000011fe:    4011        .@      ANDS     r1,r1,r2
        0x00001200:    2205        ."      MOVS     r2,#5
        0x00001202:    0712        ..      LSLS     r2,r2,#28
        0x00001204:    6391        .c      STR      r1,[r2,#0x38]
        0x00001206:    4611        .F      MOV      r1,r2
        0x00001208:    6b89        .k      LDR      r1,[r1,#0x38]
        0x0000120a:    2201        ."      MOVS     r2,#1
        0x0000120c:    03d2        ..      LSLS     r2,r2,#15
        0x0000120e:    4311        .C      ORRS     r1,r1,r2
        0x00001210:    2205        ."      MOVS     r2,#5
        0x00001212:    0712        ..      LSLS     r2,r2,#28
        0x00001214:    6391        .c      STR      r1,[r2,#0x38]
        0x00001216:    497c        |I      LDR      r1,[pc,#496] ; [0x1408] = 0x50004080
        0x00001218:    6809        .h      LDR      r1,[r1,#0]
        0x0000121a:    2203        ."      MOVS     r2,#3
        0x0000121c:    0392        ..      LSLS     r2,r2,#14
        0x0000121e:    4391        .C      BICS     r1,r1,r2
        0x00001220:    4a79        yJ      LDR      r2,[pc,#484] ; [0x1408] = 0x50004080
        0x00001222:    6011        .`      STR      r1,[r2,#0]
        0x00001224:    4611        .F      MOV      r1,r2
        0x00001226:    6809        .h      LDR      r1,[r1,#0]
        0x00001228:    2201        ."      MOVS     r2,#1
        0x0000122a:    0392        ..      LSLS     r2,r2,#14
        0x0000122c:    4311        .C      ORRS     r1,r1,r2
        0x0000122e:    4a76        vJ      LDR      r2,[pc,#472] ; [0x1408] = 0x50004080
        0x00001230:    6011        .`      STR      r1,[r2,#0]
        0x00001232:    bf00        ..      NOP      
        0x00001234:    bf00        ..      NOP      
        0x00001236:    2800        .(      CMP      r0,#0
        0x00001238:    d101        ..      BNE      0x123e ; Init_PWM + 510
        0x0000123a:    2101        .!      MOVS     r1,#1
        0x0000123c:    e000        ..      B        0x1240 ; Init_PWM + 512
        0x0000123e:    2100        .!      MOVS     r1,#0
        0x00001240:    2801        .(      CMP      r0,#1
        0x00001242:    d101        ..      BNE      0x1248 ; Init_PWM + 520
        0x00001244:    2201        ."      MOVS     r2,#1
        0x00001246:    e000        ..      B        0x124a ; Init_PWM + 522
        0x00001248:    2200        ."      MOVS     r2,#0
        0x0000124a:    4311        .C      ORRS     r1,r1,r2
        0x0000124c:    d006        ..      BEQ      0x125c ; Init_PWM + 540
        0x0000124e:    4976        vI      LDR      r1,[pc,#472] ; [0x1428] = 0x50000200
        0x00001250:    6889        .h      LDR      r1,[r1,#8]
        0x00001252:    2201        ."      MOVS     r2,#1
        0x00001254:    0512        ..      LSLS     r2,r2,#20
        0x00001256:    4311        .C      ORRS     r1,r1,r2
        0x00001258:    4a73        sJ      LDR      r2,[pc,#460] ; [0x1428] = 0x50000200
        0x0000125a:    6091        .`      STR      r1,[r2,#8]
        0x0000125c:    2802        .(      CMP      r0,#2
        0x0000125e:    d101        ..      BNE      0x1264 ; Init_PWM + 548
        0x00001260:    2101        .!      MOVS     r1,#1
        0x00001262:    e000        ..      B        0x1266 ; Init_PWM + 550
        0x00001264:    2100        .!      MOVS     r1,#0
        0x00001266:    2803        .(      CMP      r0,#3
        0x00001268:    d101        ..      BNE      0x126e ; Init_PWM + 558
        0x0000126a:    2201        ."      MOVS     r2,#1
        0x0000126c:    e000        ..      B        0x1270 ; Init_PWM + 560
        0x0000126e:    2200        ."      MOVS     r2,#0
        0x00001270:    4311        .C      ORRS     r1,r1,r2
        0x00001272:    d006        ..      BEQ      0x1282 ; Init_PWM + 578
        0x00001274:    496c        lI      LDR      r1,[pc,#432] ; [0x1428] = 0x50000200
        0x00001276:    6889        .h      LDR      r1,[r1,#8]
        0x00001278:    2201        ."      MOVS     r2,#1
        0x0000127a:    0552        R.      LSLS     r2,r2,#21
        0x0000127c:    4311        .C      ORRS     r1,r1,r2
        0x0000127e:    4a6a        jJ      LDR      r2,[pc,#424] ; [0x1428] = 0x50000200
        0x00001280:    6091        .`      STR      r1,[r2,#8]
        0x00001282:    2804        .(      CMP      r0,#4
        0x00001284:    d101        ..      BNE      0x128a ; Init_PWM + 586
        0x00001286:    2101        .!      MOVS     r1,#1
        0x00001288:    e000        ..      B        0x128c ; Init_PWM + 588
        0x0000128a:    2100        .!      MOVS     r1,#0
        0x0000128c:    2805        .(      CMP      r0,#5
        0x0000128e:    d101        ..      BNE      0x1294 ; Init_PWM + 596
        0x00001290:    2201        ."      MOVS     r2,#1
        0x00001292:    e000        ..      B        0x1296 ; Init_PWM + 598
        0x00001294:    2200        ."      MOVS     r2,#0
        0x00001296:    4311        .C      ORRS     r1,r1,r2
        0x00001298:    d006        ..      BEQ      0x12a8 ; Init_PWM + 616
        0x0000129a:    4963        cI      LDR      r1,[pc,#396] ; [0x1428] = 0x50000200
        0x0000129c:    6889        .h      LDR      r1,[r1,#8]
        0x0000129e:    2201        ."      MOVS     r2,#1
        0x000012a0:    0592        ..      LSLS     r2,r2,#22
        0x000012a2:    4311        .C      ORRS     r1,r1,r2
        0x000012a4:    4a60        `J      LDR      r2,[pc,#384] ; [0x1428] = 0x50000200
        0x000012a6:    6091        .`      STR      r1,[r2,#8]
        0x000012a8:    2806        .(      CMP      r0,#6
        0x000012aa:    d101        ..      BNE      0x12b0 ; Init_PWM + 624
        0x000012ac:    2101        .!      MOVS     r1,#1
        0x000012ae:    e000        ..      B        0x12b2 ; Init_PWM + 626
        0x000012b0:    2100        .!      MOVS     r1,#0
        0x000012b2:    2807        .(      CMP      r0,#7
        0x000012b4:    d101        ..      BNE      0x12ba ; Init_PWM + 634
        0x000012b6:    2201        ."      MOVS     r2,#1
        0x000012b8:    e000        ..      B        0x12bc ; Init_PWM + 636
        0x000012ba:    2200        ."      MOVS     r2,#0
        0x000012bc:    4311        .C      ORRS     r1,r1,r2
        0x000012be:    d006        ..      BEQ      0x12ce ; Init_PWM + 654
        0x000012c0:    4959        YI      LDR      r1,[pc,#356] ; [0x1428] = 0x50000200
        0x000012c2:    6889        .h      LDR      r1,[r1,#8]
        0x000012c4:    2201        ."      MOVS     r2,#1
        0x000012c6:    05d2        ..      LSLS     r2,r2,#23
        0x000012c8:    4311        .C      ORRS     r1,r1,r2
        0x000012ca:    4a57        WJ      LDR      r2,[pc,#348] ; [0x1428] = 0x50000200
        0x000012cc:    6091        .`      STR      r1,[r2,#8]
        0x000012ce:    17c1        ..      ASRS     r1,r0,#31
        0x000012d0:    1c49        I.      ADDS     r1,r1,#1
        0x000012d2:    2803        .(      CMP      r0,#3
        0x000012d4:    dc01        ..      BGT      0x12da ; Init_PWM + 666
        0x000012d6:    2201        ."      MOVS     r2,#1
        0x000012d8:    e000        ..      B        0x12dc ; Init_PWM + 668
        0x000012da:    2200        ."      MOVS     r2,#0
        0x000012dc:    4211        .B      TST      r1,r2
        0x000012de:    d031        1.      BEQ      0x1344 ; Init_PWM + 772
        0x000012e0:    4951        QI      LDR      r1,[pc,#324] ; [0x1428] = 0x50000200
        0x000012e2:    6949        Ii      LDR      r1,[r1,#0x14]
        0x000012e4:    220f        ."      MOVS     r2,#0xf
        0x000012e6:    0712        ..      LSLS     r2,r2,#28
        0x000012e8:    4311        .C      ORRS     r1,r1,r2
        0x000012ea:    4a4f        OJ      LDR      r2,[pc,#316] ; [0x1428] = 0x50000200
        0x000012ec:    6151        Qa      STR      r1,[r2,#0x14]
        0x000012ee:    494f        OI      LDR      r1,[pc,#316] ; [0x142c] = 0x40040000
        0x000012f0:    6809        .h      LDR      r1,[r1,#0]
        0x000012f2:    4a4f        OJ      LDR      r2,[pc,#316] ; [0x1430] = 0xc8ff0101
        0x000012f4:    4311        .C      ORRS     r1,r1,r2
        0x000012f6:    4a4d        MJ      LDR      r2,[pc,#308] ; [0x142c] = 0x40040000
        0x000012f8:    6011        .`      STR      r1,[r2,#0]
        0x000012fa:    4611        .F      MOV      r1,r2
        0x000012fc:    6849        Ih      LDR      r1,[r1,#4]
        0x000012fe:    4a4d        MJ      LDR      r2,[pc,#308] ; [0x1434] = 0x4444
        0x00001300:    4311        .C      ORRS     r1,r1,r2
        0x00001302:    4a4a        JJ      LDR      r2,[pc,#296] ; [0x142c] = 0x40040000
        0x00001304:    6051        Q`      STR      r1,[r2,#4]
        0x00001306:    4611        .F      MOV      r1,r2
        0x00001308:    6889        .h      LDR      r1,[r1,#8]
        0x0000130a:    4a4b        KJ      LDR      r2,[pc,#300] ; [0x1438] = 0x8080808
        0x0000130c:    4311        .C      ORRS     r1,r1,r2
        0x0000130e:    4a47        GJ      LDR      r2,[pc,#284] ; [0x142c] = 0x40040000
        0x00001310:    6091        .`      STR      r1,[r2,#8]
        0x00001312:    2145        E!      MOVS     r1,#0x45
        0x00001314:    00c9        ..      LSLS     r1,r1,#3
        0x00001316:    6311        .c      STR      r1,[r2,#0x30]
        0x00001318:    6251        Qb      STR      r1,[r2,#0x24]
        0x0000131a:    6191        .a      STR      r1,[r2,#0x18]
        0x0000131c:    60d1        .`      STR      r1,[r2,#0xc]
        0x0000131e:    2100        .!      MOVS     r1,#0
        0x00001320:    6111        .a      STR      r1,[r2,#0x10]
        0x00001322:    61d1        .a      STR      r1,[r2,#0x1c]
        0x00001324:    6291        .b      STR      r1,[r2,#0x28]
        0x00001326:    6351        Qc      STR      r1,[r2,#0x34]
        0x00001328:    4940        @I      LDR      r1,[pc,#256] ; [0x142c] = 0x40040000
        0x0000132a:    3140        @1      ADDS     r1,r1,#0x40
        0x0000132c:    6bc9        .k      LDR      r1,[r1,#0x3c]
        0x0000132e:    220f        ."      MOVS     r2,#0xf
        0x00001330:    4311        .C      ORRS     r1,r1,r2
        0x00001332:    4a3e        >J      LDR      r2,[pc,#248] ; [0x142c] = 0x40040000
        0x00001334:    3240        @2      ADDS     r2,r2,#0x40
        0x00001336:    63d1        .c      STR      r1,[r2,#0x3c]
        0x00001338:    0311        ..      LSLS     r1,r2,#12
        0x0000133a:    6889        .h      LDR      r1,[r1,#8]
        0x0000133c:    4a3f        ?J      LDR      r2,[pc,#252] ; [0x143c] = 0x1010101
        0x0000133e:    4311        .C      ORRS     r1,r1,r2
        0x00001340:    4a3a        :J      LDR      r2,[pc,#232] ; [0x142c] = 0x40040000
        0x00001342:    6091        .`      STR      r1,[r2,#8]
        0x00001344:    2804        .(      CMP      r0,#4
        0x00001346:    db01        ..      BLT      0x134c ; Init_PWM + 780
        0x00001348:    2101        .!      MOVS     r1,#1
        0x0000134a:    e000        ..      B        0x134e ; Init_PWM + 782
        0x0000134c:    2100        .!      MOVS     r1,#0
        0x0000134e:    2807        .(      CMP      r0,#7
        0x00001350:    dc01        ..      BGT      0x1356 ; Init_PWM + 790
        0x00001352:    2201        ."      MOVS     r2,#1
        0x00001354:    e000        ..      B        0x1358 ; Init_PWM + 792
        0x00001356:    2200        ."      MOVS     r2,#0
        0x00001358:    4211        .B      TST      r1,r2
        0x0000135a:    d030        0.      BEQ      0x13be ; Init_PWM + 894
        0x0000135c:    4932        2I      LDR      r1,[pc,#200] ; [0x1428] = 0x50000200
        0x0000135e:    69c9        .i      LDR      r1,[r1,#0x1c]
        0x00001360:    22f0        ."      MOVS     r2,#0xf0
        0x00001362:    4311        .C      ORRS     r1,r1,r2
        0x00001364:    4a30        0J      LDR      r2,[pc,#192] ; [0x1428] = 0x50000200
        0x00001366:    61d1        .a      STR      r1,[r2,#0x1c]
        0x00001368:    4935        5I      LDR      r1,[pc,#212] ; [0x1440] = 0x40140000
        0x0000136a:    6809        .h      LDR      r1,[r1,#0]
        0x0000136c:    4a30        0J      LDR      r2,[pc,#192] ; [0x1430] = 0xc8ff0101
        0x0000136e:    4311        .C      ORRS     r1,r1,r2
        0x00001370:    4a33        3J      LDR      r2,[pc,#204] ; [0x1440] = 0x40140000
        0x00001372:    6011        .`      STR      r1,[r2,#0]
        0x00001374:    4611        .F      MOV      r1,r2
        0x00001376:    6849        Ih      LDR      r1,[r1,#4]
        0x00001378:    4a2e        .J      LDR      r2,[pc,#184] ; [0x1434] = 0x4444
        0x0000137a:    4311        .C      ORRS     r1,r1,r2
        0x0000137c:    4a30        0J      LDR      r2,[pc,#192] ; [0x1440] = 0x40140000
        0x0000137e:    6051        Q`      STR      r1,[r2,#4]
        0x00001380:    4611        .F      MOV      r1,r2
        0x00001382:    6889        .h      LDR      r1,[r1,#8]
        0x00001384:    4a2c        ,J      LDR      r2,[pc,#176] ; [0x1438] = 0x8080808
        0x00001386:    4311        .C      ORRS     r1,r1,r2
        0x00001388:    4a2d        -J      LDR      r2,[pc,#180] ; [0x1440] = 0x40140000
        0x0000138a:    6091        .`      STR      r1,[r2,#8]
        0x0000138c:    2145        E!      MOVS     r1,#0x45
        0x0000138e:    00c9        ..      LSLS     r1,r1,#3
        0x00001390:    6311        .c      STR      r1,[r2,#0x30]
        0x00001392:    6251        Qb      STR      r1,[r2,#0x24]
        0x00001394:    6191        .a      STR      r1,[r2,#0x18]
        0x00001396:    60d1        .`      STR      r1,[r2,#0xc]
        0x00001398:    2100        .!      MOVS     r1,#0
        0x0000139a:    6111        .a      STR      r1,[r2,#0x10]
        0x0000139c:    61d1        .a      STR      r1,[r2,#0x1c]
        0x0000139e:    6291        .b      STR      r1,[r2,#0x28]
        0x000013a0:    6351        Qc      STR      r1,[r2,#0x34]
        0x000013a2:    4927        'I      LDR      r1,[pc,#156] ; [0x1440] = 0x40140000
        0x000013a4:    3140        @1      ADDS     r1,r1,#0x40
        0x000013a6:    6bc9        .k      LDR      r1,[r1,#0x3c]
        0x000013a8:    220f        ."      MOVS     r2,#0xf
        0x000013aa:    4311        .C      ORRS     r1,r1,r2
        0x000013ac:    4a24        $J      LDR      r2,[pc,#144] ; [0x1440] = 0x40140000
        0x000013ae:    3240        @2      ADDS     r2,r2,#0x40
        0x000013b0:    63d1        .c      STR      r1,[r2,#0x3c]
        0x000013b2:    4923        #I      LDR      r1,[pc,#140] ; [0x1440] = 0x40140000
        0x000013b4:    6889        .h      LDR      r1,[r1,#8]
        0x000013b6:    4a21        !J      LDR      r2,[pc,#132] ; [0x143c] = 0x1010101
        0x000013b8:    4311        .C      ORRS     r1,r1,r2
        0x000013ba:    4a21        !J      LDR      r2,[pc,#132] ; [0x1440] = 0x40140000
        0x000013bc:    6091        .`      STR      r1,[r2,#8]
        0x000013be:    bd00        ..      POP      {pc}
    PWM_Write
        0x000013c0:    b500        ..      PUSH     {lr}
        0x000013c2:    0003        ..      MOVS     r3,r0
        0x000013c4:    f002fac9    ....    BL       __ARM_common_switch8 ; 0x395a
    $d
        0x000013c8:    0b080508    ....    DCD    185074952
        0x000013cc:    1714110e    ....    DCD    387191054
        0x000013d0:    1d1a        ..      DCW    7450
    $t
        0x000013d2:    4a16        .J      LDR      r2,[pc,#88] ; [0x142c] = 0x40040000
        0x000013d4:    6111        .a      STR      r1,[r2,#0x10]
        0x000013d6:    e014        ..      B        0x1402 ; PWM_Write + 66
        0x000013d8:    4a14        .J      LDR      r2,[pc,#80] ; [0x142c] = 0x40040000
        0x000013da:    61d1        .a      STR      r1,[r2,#0x1c]
        0x000013dc:    e011        ..      B        0x1402 ; PWM_Write + 66
        0x000013de:    4a13        .J      LDR      r2,[pc,#76] ; [0x142c] = 0x40040000
        0x000013e0:    6291        .b      STR      r1,[r2,#0x28]
        0x000013e2:    e00e        ..      B        0x1402 ; PWM_Write + 66
        0x000013e4:    4a11        .J      LDR      r2,[pc,#68] ; [0x142c] = 0x40040000
        0x000013e6:    6351        Qc      STR      r1,[r2,#0x34]
        0x000013e8:    e00b        ..      B        0x1402 ; PWM_Write + 66
        0x000013ea:    4a15        .J      LDR      r2,[pc,#84] ; [0x1440] = 0x40140000
        0x000013ec:    6111        .a      STR      r1,[r2,#0x10]
        0x000013ee:    e008        ..      B        0x1402 ; PWM_Write + 66
        0x000013f0:    4a13        .J      LDR      r2,[pc,#76] ; [0x1440] = 0x40140000
        0x000013f2:    61d1        .a      STR      r1,[r2,#0x1c]
        0x000013f4:    e005        ..      B        0x1402 ; PWM_Write + 66
        0x000013f6:    4a12        .J      LDR      r2,[pc,#72] ; [0x1440] = 0x40140000
        0x000013f8:    6291        .b      STR      r1,[r2,#0x28]
        0x000013fa:    e002        ..      B        0x1402 ; PWM_Write + 66
        0x000013fc:    4a10        .J      LDR      r2,[pc,#64] ; [0x1440] = 0x40140000
        0x000013fe:    6351        Qc      STR      r1,[r2,#0x34]
        0x00001400:    bf00        ..      NOP      
        0x00001402:    bf00        ..      NOP      
        0x00001404:    bd00        ..      POP      {pc}
    $d
        0x00001406:    0000        ..      DCW    0
        0x00001408:    50004080    .@.P    DCD    1342193792
        0x0000140c:    fffffdfd    ....    DCD    4294966781
        0x00001410:    fffffbfb    ....    DCD    4294966267
        0x00001414:    fffff7f7    ....    DCD    4294965239
        0x00001418:    ffffefef    ....    DCD    4294963183
        0x0000141c:    ffffdfdf    ....    DCD    4294959071
        0x00001420:    ffffbfbf    ....    DCD    4294950847
        0x00001424:    ffff7f7f    ....    DCD    4294934399
        0x00001428:    50000200    ...P    DCD    1342177792
        0x0000142c:    40040000    ...@    DCD    1074003968
        0x00001430:    c8ff0101    ....    DCD    3372155137
        0x00001434:    00004444    DD..    DCD    17476
        0x00001438:    08080808    ....    DCD    134744072
        0x0000143c:    01010101    ....    DCD    16843009
        0x00001440:    40140000    ...@    DCD    1075052544
    $t
    .text
    Init_GPIO_Output
        0x00001444:    b510        ..      PUSH     {r4,lr}
        0x00001446:    0003        ..      MOVS     r3,r0
        0x00001448:    f002fa87    ....    BL       __ARM_common_switch8 ; 0x395a
    $d
        0x0000144c:    2b160405    ...+    DCD    722863109
        0x00001450:    00665440    @Tf.    DCD    6706240
    $t
        0x00001454:    4aaf        .J      LDR      r2,[pc,#700] ; [0x1714] = 0x50004000
        0x00001456:    6812        .h      LDR      r2,[r2,#0]
        0x00001458:    004c        L.      LSLS     r4,r1,#1
        0x0000145a:    2301        .#      MOVS     r3,#1
        0x0000145c:    40a3        .@      LSLS     r3,r3,r4
        0x0000145e:    431a        .C      ORRS     r2,r2,r3
        0x00001460:    4bac        .K      LDR      r3,[pc,#688] ; [0x1714] = 0x50004000
        0x00001462:    601a        .`      STR      r2,[r3,#0]
        0x00001464:    461a        .F      MOV      r2,r3
        0x00001466:    6812        .h      LDR      r2,[r2,#0]
        0x00001468:    004b        K.      LSLS     r3,r1,#1
        0x0000146a:    1c5b        [.      ADDS     r3,r3,#1
        0x0000146c:    2401        .$      MOVS     r4,#1
        0x0000146e:    409c        .@      LSLS     r4,r4,r3
        0x00001470:    43a2        .C      BICS     r2,r2,r4
        0x00001472:    4ba8        .K      LDR      r3,[pc,#672] ; [0x1714] = 0x50004000
        0x00001474:    601a        .`      STR      r2,[r3,#0]
        0x00001476:    e04f        O.      B        0x1518 ; Init_GPIO_Output + 212
        0x00001478:    4aa6        .J      LDR      r2,[pc,#664] ; [0x1714] = 0x50004000
        0x0000147a:    3240        @2      ADDS     r2,r2,#0x40
        0x0000147c:    6812        .h      LDR      r2,[r2,#0]
        0x0000147e:    004c        L.      LSLS     r4,r1,#1
        0x00001480:    2301        .#      MOVS     r3,#1
        0x00001482:    40a3        .@      LSLS     r3,r3,r4
        0x00001484:    431a        .C      ORRS     r2,r2,r3
        0x00001486:    4ba3        .K      LDR      r3,[pc,#652] ; [0x1714] = 0x50004000
        0x00001488:    3340        @3      ADDS     r3,r3,#0x40
        0x0000148a:    601a        .`      STR      r2,[r3,#0]
        0x0000148c:    461a        .F      MOV      r2,r3
        0x0000148e:    6812        .h      LDR      r2,[r2,#0]
        0x00001490:    004b        K.      LSLS     r3,r1,#1
        0x00001492:    1c5b        [.      ADDS     r3,r3,#1
        0x00001494:    2401        .$      MOVS     r4,#1
        0x00001496:    409c        .@      LSLS     r4,r4,r3
        0x00001498:    43a2        .C      BICS     r2,r2,r4
        0x0000149a:    4b9e        .K      LDR      r3,[pc,#632] ; [0x1714] = 0x50004000
        0x0000149c:    3340        @3      ADDS     r3,r3,#0x40
        0x0000149e:    601a        .`      STR      r2,[r3,#0]
        0x000014a0:    e03a        :.      B        0x1518 ; Init_GPIO_Output + 212
        0x000014a2:    4a9c        .J      LDR      r2,[pc,#624] ; [0x1714] = 0x50004000
        0x000014a4:    3280        .2      ADDS     r2,r2,#0x80
        0x000014a6:    6812        .h      LDR      r2,[r2,#0]
        0x000014a8:    004c        L.      LSLS     r4,r1,#1
        0x000014aa:    2301        .#      MOVS     r3,#1
        0x000014ac:    40a3        .@      LSLS     r3,r3,r4
        0x000014ae:    431a        .C      ORRS     r2,r2,r3
        0x000014b0:    4b98        .K      LDR      r3,[pc,#608] ; [0x1714] = 0x50004000
        0x000014b2:    3380        .3      ADDS     r3,r3,#0x80
        0x000014b4:    601a        .`      STR      r2,[r3,#0]
        0x000014b6:    461a        .F      MOV      r2,r3
        0x000014b8:    6812        .h      LDR      r2,[r2,#0]
        0x000014ba:    004b        K.      LSLS     r3,r1,#1
        0x000014bc:    1c5b        [.      ADDS     r3,r3,#1
        0x000014be:    2401        .$      MOVS     r4,#1
        0x000014c0:    409c        .@      LSLS     r4,r4,r3
        0x000014c2:    43a2        .C      BICS     r2,r2,r4
        0x000014c4:    4b93        .K      LDR      r3,[pc,#588] ; [0x1714] = 0x50004000
        0x000014c6:    3380        .3      ADDS     r3,r3,#0x80
        0x000014c8:    601a        .`      STR      r2,[r3,#0]
        0x000014ca:    e025        %.      B        0x1518 ; Init_GPIO_Output + 212
        0x000014cc:    4a91        .J      LDR      r2,[pc,#580] ; [0x1714] = 0x50004000
        0x000014ce:    32c0        .2      ADDS     r2,r2,#0xc0
        0x000014d0:    6813        .h      LDR      r3,[r2,#0]
        0x000014d2:    004c        L.      LSLS     r4,r1,#1
        0x000014d4:    2201        ."      MOVS     r2,#1
        0x000014d6:    40a2        .@      LSLS     r2,r2,r4
        0x000014d8:    4313        .C      ORRS     r3,r3,r2
        0x000014da:    4a8e        .J      LDR      r2,[pc,#568] ; [0x1714] = 0x50004000
        0x000014dc:    32c0        .2      ADDS     r2,r2,#0xc0
        0x000014de:    6013        .`      STR      r3,[r2,#0]
        0x000014e0:    6812        .h      LDR      r2,[r2,#0]
        0x000014e2:    004b        K.      LSLS     r3,r1,#1
        0x000014e4:    1c5b        [.      ADDS     r3,r3,#1
        0x000014e6:    2401        .$      MOVS     r4,#1
        0x000014e8:    409c        .@      LSLS     r4,r4,r3
        0x000014ea:    43a2        .C      BICS     r2,r2,r4
        0x000014ec:    4b89        .K      LDR      r3,[pc,#548] ; [0x1714] = 0x50004000
        0x000014ee:    33c0        .3      ADDS     r3,r3,#0xc0
        0x000014f0:    601a        .`      STR      r2,[r3,#0]
        0x000014f2:    e011        ..      B        0x1518 ; Init_GPIO_Output + 212
        0x000014f4:    4a88        .J      LDR      r2,[pc,#544] ; [0x1718] = 0x50004100
        0x000014f6:    6812        .h      LDR      r2,[r2,#0]
        0x000014f8:    004c        L.      LSLS     r4,r1,#1
        0x000014fa:    2301        .#      MOVS     r3,#1
        0x000014fc:    40a3        .@      LSLS     r3,r3,r4
        0x000014fe:    431a        .C      ORRS     r2,r2,r3
        0x00001500:    4b85        .K      LDR      r3,[pc,#532] ; [0x1718] = 0x50004100
        0x00001502:    601a        .`      STR      r2,[r3,#0]
        0x00001504:    461a        .F      MOV      r2,r3
        0x00001506:    6813        .h      LDR      r3,[r2,#0]
        0x00001508:    004a        J.      LSLS     r2,r1,#1
        0x0000150a:    1c52        R.      ADDS     r2,r2,#1
        0x0000150c:    2401        .$      MOVS     r4,#1
        0x0000150e:    4094        .@      LSLS     r4,r4,r2
        0x00001510:    43a3        .C      BICS     r3,r3,r4
        0x00001512:    4a81        .J      LDR      r2,[pc,#516] ; [0x1718] = 0x50004100
        0x00001514:    6013        .`      STR      r3,[r2,#0]
        0x00001516:    bf00        ..      NOP      
        0x00001518:    bf00        ..      NOP      
        0x0000151a:    bd10        ..      POP      {r4,pc}
    Init_GPIO_Input
        0x0000151c:    b510        ..      PUSH     {r4,lr}
        0x0000151e:    0003        ..      MOVS     r3,r0
        0x00001520:    f002fa1b    ....    BL       __ARM_common_switch8 ; 0x395a
    $d
        0x00001524:    29150405    ...)    DCD    689243141
        0x00001528:    0064523e    >Rd.    DCD    6574654
    $t
        0x0000152c:    4a79        yJ      LDR      r2,[pc,#484] ; [0x1714] = 0x50004000
        0x0000152e:    6813        .h      LDR      r3,[r2,#0]
        0x00001530:    004c        L.      LSLS     r4,r1,#1
        0x00001532:    2201        ."      MOVS     r2,#1
        0x00001534:    40a2        .@      LSLS     r2,r2,r4
        0x00001536:    4393        .C      BICS     r3,r3,r2
        0x00001538:    4a76        vJ      LDR      r2,[pc,#472] ; [0x1714] = 0x50004000
        0x0000153a:    6013        .`      STR      r3,[r2,#0]
        0x0000153c:    6812        .h      LDR      r2,[r2,#0]
        0x0000153e:    004b        K.      LSLS     r3,r1,#1
        0x00001540:    1c5b        [.      ADDS     r3,r3,#1
        0x00001542:    2401        .$      MOVS     r4,#1
        0x00001544:    409c        .@      LSLS     r4,r4,r3
        0x00001546:    43a2        .C      BICS     r2,r2,r4
        0x00001548:    4b72        rK      LDR      r3,[pc,#456] ; [0x1714] = 0x50004000
        0x0000154a:    601a        .`      STR      r2,[r3,#0]
        0x0000154c:    e04e        N.      B        0x15ec ; Init_GPIO_Input + 208
        0x0000154e:    4a71        qJ      LDR      r2,[pc,#452] ; [0x1714] = 0x50004000
        0x00001550:    3240        @2      ADDS     r2,r2,#0x40
        0x00001552:    6813        .h      LDR      r3,[r2,#0]
        0x00001554:    004c        L.      LSLS     r4,r1,#1
        0x00001556:    2201        ."      MOVS     r2,#1
        0x00001558:    40a2        .@      LSLS     r2,r2,r4
        0x0000155a:    4393        .C      BICS     r3,r3,r2
        0x0000155c:    4a6d        mJ      LDR      r2,[pc,#436] ; [0x1714] = 0x50004000
        0x0000155e:    3240        @2      ADDS     r2,r2,#0x40
        0x00001560:    6013        .`      STR      r3,[r2,#0]
        0x00001562:    6813        .h      LDR      r3,[r2,#0]
        0x00001564:    004a        J.      LSLS     r2,r1,#1
        0x00001566:    1c52        R.      ADDS     r2,r2,#1
        0x00001568:    2401        .$      MOVS     r4,#1
        0x0000156a:    4094        .@      LSLS     r4,r4,r2
        0x0000156c:    43a3        .C      BICS     r3,r3,r4
        0x0000156e:    4a69        iJ      LDR      r2,[pc,#420] ; [0x1714] = 0x50004000
        0x00001570:    3240        @2      ADDS     r2,r2,#0x40
        0x00001572:    6013        .`      STR      r3,[r2,#0]
        0x00001574:    e03a        :.      B        0x15ec ; Init_GPIO_Input + 208
        0x00001576:    4a67        gJ      LDR      r2,[pc,#412] ; [0x1714] = 0x50004000
        0x00001578:    3280        .2      ADDS     r2,r2,#0x80
        0x0000157a:    6812        .h      LDR      r2,[r2,#0]
        0x0000157c:    004c        L.      LSLS     r4,r1,#1
        0x0000157e:    2301        .#      MOVS     r3,#1
        0x00001580:    40a3        .@      LSLS     r3,r3,r4
        0x00001582:    439a        .C      BICS     r2,r2,r3
        0x00001584:    4b63        cK      LDR      r3,[pc,#396] ; [0x1714] = 0x50004000
        0x00001586:    3380        .3      ADDS     r3,r3,#0x80
        0x00001588:    601a        .`      STR      r2,[r3,#0]
        0x0000158a:    461a        .F      MOV      r2,r3
        0x0000158c:    6813        .h      LDR      r3,[r2,#0]
        0x0000158e:    004a        J.      LSLS     r2,r1,#1
        0x00001590:    1c52        R.      ADDS     r2,r2,#1
        0x00001592:    2401        .$      MOVS     r4,#1
        0x00001594:    4094        .@      LSLS     r4,r4,r2
        0x00001596:    43a3        .C      BICS     r3,r3,r4
        0x00001598:    4a5e        ^J      LDR      r2,[pc,#376] ; [0x1714] = 0x50004000
        0x0000159a:    3280        .2      ADDS     r2,r2,#0x80
        0x0000159c:    6013        .`      STR      r3,[r2,#0]
        0x0000159e:    e025        %.      B        0x15ec ; Init_GPIO_Input + 208
        0x000015a0:    4a5d        ]J      LDR      r2,[pc,#372] ; [0x1718] = 0x50004100
        0x000015a2:    3a40        @:      SUBS     r2,r2,#0x40
        0x000015a4:    6813        .h      LDR      r3,[r2,#0]
        0x000015a6:    004c        L.      LSLS     r4,r1,#1
        0x000015a8:    2201        ."      MOVS     r2,#1
        0x000015aa:    40a2        .@      LSLS     r2,r2,r4
        0x000015ac:    4393        .C      BICS     r3,r3,r2
        0x000015ae:    4a5a        ZJ      LDR      r2,[pc,#360] ; [0x1718] = 0x50004100
        0x000015b0:    3a40        @:      SUBS     r2,r2,#0x40
        0x000015b2:    6013        .`      STR      r3,[r2,#0]
        0x000015b4:    6812        .h      LDR      r2,[r2,#0]
        0x000015b6:    004b        K.      LSLS     r3,r1,#1
        0x000015b8:    1c5b        [.      ADDS     r3,r3,#1
        0x000015ba:    2401        .$      MOVS     r4,#1
        0x000015bc:    409c        .@      LSLS     r4,r4,r3
        0x000015be:    43a2        .C      BICS     r2,r2,r4
        0x000015c0:    4b55        UK      LDR      r3,[pc,#340] ; [0x1718] = 0x50004100
        0x000015c2:    3b40        @;      SUBS     r3,r3,#0x40
        0x000015c4:    601a        .`      STR      r2,[r3,#0]
        0x000015c6:    e011        ..      B        0x15ec ; Init_GPIO_Input + 208
        0x000015c8:    4a53        SJ      LDR      r2,[pc,#332] ; [0x1718] = 0x50004100
        0x000015ca:    6812        .h      LDR      r2,[r2,#0]
        0x000015cc:    004c        L.      LSLS     r4,r1,#1
        0x000015ce:    2301        .#      MOVS     r3,#1
        0x000015d0:    40a3        .@      LSLS     r3,r3,r4
        0x000015d2:    439a        .C      BICS     r2,r2,r3
        0x000015d4:    4b50        PK      LDR      r3,[pc,#320] ; [0x1718] = 0x50004100
        0x000015d6:    601a        .`      STR      r2,[r3,#0]
        0x000015d8:    461a        .F      MOV      r2,r3
        0x000015da:    6812        .h      LDR      r2,[r2,#0]
        0x000015dc:    004b        K.      LSLS     r3,r1,#1
        0x000015de:    1c5b        [.      ADDS     r3,r3,#1
        0x000015e0:    2401        .$      MOVS     r4,#1
        0x000015e2:    409c        .@      LSLS     r4,r4,r3
        0x000015e4:    43a2        .C      BICS     r2,r2,r4
        0x000015e6:    4b4c        LK      LDR      r3,[pc,#304] ; [0x1718] = 0x50004100
        0x000015e8:    601a        .`      STR      r2,[r3,#0]
        0x000015ea:    bf00        ..      NOP      
        0x000015ec:    bf00        ..      NOP      
        0x000015ee:    bd10        ..      POP      {r4,pc}
    digitalWrite
        0x000015f0:    b510        ..      PUSH     {r4,lr}
        0x000015f2:    2a01        .*      CMP      r2,#1
        0x000015f4:    d135        5.      BNE      0x1662 ; digitalWrite + 114
        0x000015f6:    0003        ..      MOVS     r3,r0
        0x000015f8:    f002f9af    ....    BL       __ARM_common_switch8 ; 0x395a
    $d
        0x000015fc:    160c0405    ....    DCD    369886213
        0x00001600:    00322a20     *2.    DCD    3287584
    $t
        0x00001604:    4b43        CK      LDR      r3,[pc,#268] ; [0x1714] = 0x50004000
        0x00001606:    689b        .h      LDR      r3,[r3,#8]
        0x00001608:    2401        .$      MOVS     r4,#1
        0x0000160a:    408c        .@      LSLS     r4,r4,r1
        0x0000160c:    4323        #C      ORRS     r3,r3,r4
        0x0000160e:    4c41        AL      LDR      r4,[pc,#260] ; [0x1714] = 0x50004000
        0x00001610:    60a3        .`      STR      r3,[r4,#8]
        0x00001612:    e025        %.      B        0x1660 ; digitalWrite + 112
        0x00001614:    4b3f        ?K      LDR      r3,[pc,#252] ; [0x1714] = 0x50004000
        0x00001616:    3340        @3      ADDS     r3,r3,#0x40
        0x00001618:    689b        .h      LDR      r3,[r3,#8]
        0x0000161a:    2401        .$      MOVS     r4,#1
        0x0000161c:    408c        .@      LSLS     r4,r4,r1
        0x0000161e:    4323        #C      ORRS     r3,r3,r4
        0x00001620:    4c3c        <L      LDR      r4,[pc,#240] ; [0x1714] = 0x50004000
        0x00001622:    3440        @4      ADDS     r4,r4,#0x40
        0x00001624:    60a3        .`      STR      r3,[r4,#8]
        0x00001626:    e01b        ..      B        0x1660 ; digitalWrite + 112
        0x00001628:    4b3a        :K      LDR      r3,[pc,#232] ; [0x1714] = 0x50004000
        0x0000162a:    3380        .3      ADDS     r3,r3,#0x80
        0x0000162c:    689b        .h      LDR      r3,[r3,#8]
        0x0000162e:    2401        .$      MOVS     r4,#1
        0x00001630:    408c        .@      LSLS     r4,r4,r1
        0x00001632:    4323        #C      ORRS     r3,r3,r4
        0x00001634:    4c37        7L      LDR      r4,[pc,#220] ; [0x1714] = 0x50004000
        0x00001636:    3480        .4      ADDS     r4,r4,#0x80
        0x00001638:    60a3        .`      STR      r3,[r4,#8]
        0x0000163a:    e011        ..      B        0x1660 ; digitalWrite + 112
        0x0000163c:    4b36        6K      LDR      r3,[pc,#216] ; [0x1718] = 0x50004100
        0x0000163e:    3b40        @;      SUBS     r3,r3,#0x40
        0x00001640:    689b        .h      LDR      r3,[r3,#8]
        0x00001642:    2401        .$      MOVS     r4,#1
        0x00001644:    408c        .@      LSLS     r4,r4,r1
        0x00001646:    4323        #C      ORRS     r3,r3,r4
        0x00001648:    4c33        3L      LDR      r4,[pc,#204] ; [0x1718] = 0x50004100
        0x0000164a:    3c40        @<      SUBS     r4,r4,#0x40
        0x0000164c:    60a3        .`      STR      r3,[r4,#8]
        0x0000164e:    e007        ..      B        0x1660 ; digitalWrite + 112
        0x00001650:    4b31        1K      LDR      r3,[pc,#196] ; [0x1718] = 0x50004100
        0x00001652:    689b        .h      LDR      r3,[r3,#8]
        0x00001654:    2401        .$      MOVS     r4,#1
        0x00001656:    408c        .@      LSLS     r4,r4,r1
        0x00001658:    4323        #C      ORRS     r3,r3,r4
        0x0000165a:    4c2f        /L      LDR      r4,[pc,#188] ; [0x1718] = 0x50004100
        0x0000165c:    60a3        .`      STR      r3,[r4,#8]
        0x0000165e:    bf00        ..      NOP      
        0x00001660:    e035        5.      B        0x16ce ; digitalWrite + 222
        0x00001662:    0003        ..      MOVS     r3,r0
        0x00001664:    f002f979    ..y.    BL       __ARM_common_switch8 ; 0x395a
    $d
        0x00001668:    160c0405    ....    DCD    369886213
        0x0000166c:    00322a20     *2.    DCD    3287584
    $t
        0x00001670:    4b28        (K      LDR      r3,[pc,#160] ; [0x1714] = 0x50004000
        0x00001672:    689c        .h      LDR      r4,[r3,#8]
        0x00001674:    2301        .#      MOVS     r3,#1
        0x00001676:    408b        .@      LSLS     r3,r3,r1
        0x00001678:    439c        .C      BICS     r4,r4,r3
        0x0000167a:    4b26        &K      LDR      r3,[pc,#152] ; [0x1714] = 0x50004000
        0x0000167c:    609c        .`      STR      r4,[r3,#8]
        0x0000167e:    e025        %.      B        0x16cc ; digitalWrite + 220
        0x00001680:    4b24        $K      LDR      r3,[pc,#144] ; [0x1714] = 0x50004000
        0x00001682:    3340        @3      ADDS     r3,r3,#0x40
        0x00001684:    689b        .h      LDR      r3,[r3,#8]
        0x00001686:    2401        .$      MOVS     r4,#1
        0x00001688:    408c        .@      LSLS     r4,r4,r1
        0x0000168a:    43a3        .C      BICS     r3,r3,r4
        0x0000168c:    4c21        !L      LDR      r4,[pc,#132] ; [0x1714] = 0x50004000
        0x0000168e:    3440        @4      ADDS     r4,r4,#0x40
        0x00001690:    60a3        .`      STR      r3,[r4,#8]
        0x00001692:    e01b        ..      B        0x16cc ; digitalWrite + 220
        0x00001694:    4b1f        .K      LDR      r3,[pc,#124] ; [0x1714] = 0x50004000
        0x00001696:    3380        .3      ADDS     r3,r3,#0x80
        0x00001698:    689b        .h      LDR      r3,[r3,#8]
        0x0000169a:    2401        .$      MOVS     r4,#1
        0x0000169c:    408c        .@      LSLS     r4,r4,r1
        0x0000169e:    43a3        .C      BICS     r3,r3,r4
        0x000016a0:    4c1c        .L      LDR      r4,[pc,#112] ; [0x1714] = 0x50004000
        0x000016a2:    3480        .4      ADDS     r4,r4,#0x80
        0x000016a4:    60a3        .`      STR      r3,[r4,#8]
        0x000016a6:    e011        ..      B        0x16cc ; digitalWrite + 220
        0x000016a8:    4b1b        .K      LDR      r3,[pc,#108] ; [0x1718] = 0x50004100
        0x000016aa:    3b40        @;      SUBS     r3,r3,#0x40
        0x000016ac:    689b        .h      LDR      r3,[r3,#8]
        0x000016ae:    2401        .$      MOVS     r4,#1
        0x000016b0:    408c        .@      LSLS     r4,r4,r1
        0x000016b2:    43a3        .C      BICS     r3,r3,r4
        0x000016b4:    4c18        .L      LDR      r4,[pc,#96] ; [0x1718] = 0x50004100
        0x000016b6:    3c40        @<      SUBS     r4,r4,#0x40
        0x000016b8:    60a3        .`      STR      r3,[r4,#8]
        0x000016ba:    e007        ..      B        0x16cc ; digitalWrite + 220
        0x000016bc:    4b16        .K      LDR      r3,[pc,#88] ; [0x1718] = 0x50004100
        0x000016be:    689b        .h      LDR      r3,[r3,#8]
        0x000016c0:    2401        .$      MOVS     r4,#1
        0x000016c2:    408c        .@      LSLS     r4,r4,r1
        0x000016c4:    43a3        .C      BICS     r3,r3,r4
        0x000016c6:    4c14        .L      LDR      r4,[pc,#80] ; [0x1718] = 0x50004100
        0x000016c8:    60a3        .`      STR      r3,[r4,#8]
        0x000016ca:    bf00        ..      NOP      
        0x000016cc:    bf00        ..      NOP      
        0x000016ce:    bd10        ..      POP      {r4,pc}
    digitalRead
        0x000016d0:    b510        ..      PUSH     {r4,lr}
        0x000016d2:    4602        .F      MOV      r2,r0
        0x000016d4:    460c        .F      MOV      r4,r1
        0x000016d6:    0013        ..      MOVS     r3,r2
        0x000016d8:    f002f93f    ..?.    BL       __ARM_common_switch8 ; 0x395a
    $d
        0x000016dc:    0b070405    ....    DCD    185009157
        0x000016e0:    0016130f    ....    DCD    1446671
    $t
        0x000016e4:    4b0b        .K      LDR      r3,[pc,#44] ; [0x1714] = 0x50004000
        0x000016e6:    6919        .i      LDR      r1,[r3,#0x10]
        0x000016e8:    e00e        ..      B        0x1708 ; digitalRead + 56
        0x000016ea:    4b0a        .K      LDR      r3,[pc,#40] ; [0x1714] = 0x50004000
        0x000016ec:    3340        @3      ADDS     r3,r3,#0x40
        0x000016ee:    6919        .i      LDR      r1,[r3,#0x10]
        0x000016f0:    e00a        ..      B        0x1708 ; digitalRead + 56
        0x000016f2:    4b08        .K      LDR      r3,[pc,#32] ; [0x1714] = 0x50004000
        0x000016f4:    3380        .3      ADDS     r3,r3,#0x80
        0x000016f6:    6919        .i      LDR      r1,[r3,#0x10]
        0x000016f8:    e006        ..      B        0x1708 ; digitalRead + 56
        0x000016fa:    4b07        .K      LDR      r3,[pc,#28] ; [0x1718] = 0x50004100
        0x000016fc:    3b40        @;      SUBS     r3,r3,#0x40
        0x000016fe:    6919        .i      LDR      r1,[r3,#0x10]
        0x00001700:    e002        ..      B        0x1708 ; digitalRead + 56
        0x00001702:    4b05        .K      LDR      r3,[pc,#20] ; [0x1718] = 0x50004100
        0x00001704:    6919        .i      LDR      r1,[r3,#0x10]
        0x00001706:    bf00        ..      NOP      
        0x00001708:    bf00        ..      NOP      
        0x0000170a:    460b        .F      MOV      r3,r1
        0x0000170c:    4123        #A      ASRS     r3,r3,r4
        0x0000170e:    07d8        ..      LSLS     r0,r3,#31
        0x00001710:    0fc0        ..      LSRS     r0,r0,#31
        0x00001712:    bd10        ..      POP      {r4,pc}
    $d
        0x00001714:    50004000    .@.P    DCD    1342193664
        0x00001718:    50004100    .A.P    DCD    1342193920
    $t
    .text
    Init_Timer0_ISR
        0x0000171c:    488f        .H      LDR      r0,[pc,#572] ; [0x195c] = 0x50000200
        0x0000171e:    6880        .h      LDR      r0,[r0,#8]
        0x00001720:    2104        .!      MOVS     r1,#4
        0x00001722:    4308        .C      ORRS     r0,r0,r1
        0x00001724:    498d        .I      LDR      r1,[pc,#564] ; [0x195c] = 0x50000200
        0x00001726:    6088        .`      STR      r0,[r1,#8]
        0x00001728:    4608        .F      MOV      r0,r1
        0x0000172a:    6940        @i      LDR      r0,[r0,#0x14]
        0x0000172c:    2107        .!      MOVS     r1,#7
        0x0000172e:    0209        ..      LSLS     r1,r1,#8
        0x00001730:    4388        .C      BICS     r0,r0,r1
        0x00001732:    498a        .I      LDR      r1,[pc,#552] ; [0x195c] = 0x50000200
        0x00001734:    6148        Ha      STR      r0,[r1,#0x14]
        0x00001736:    2005        .       MOVS     r0,#5
        0x00001738:    0700        ..      LSLS     r0,r0,#28
        0x0000173a:    68c0        .h      LDR      r0,[r0,#0xc]
        0x0000173c:    2104        .!      MOVS     r1,#4
        0x0000173e:    4308        .C      ORRS     r0,r0,r1
        0x00001740:    2105        .!      MOVS     r1,#5
        0x00001742:    0709        ..      LSLS     r1,r1,#28
        0x00001744:    60c8        .`      STR      r0,[r1,#0xc]
        0x00001746:    4608        .F      MOV      r0,r1
        0x00001748:    68c0        .h      LDR      r0,[r0,#0xc]
        0x0000174a:    2104        .!      MOVS     r1,#4
        0x0000174c:    4388        .C      BICS     r0,r0,r1
        0x0000174e:    2105        .!      MOVS     r1,#5
        0x00001750:    0709        ..      LSLS     r1,r1,#28
        0x00001752:    60c8        .`      STR      r0,[r1,#0xc]
        0x00001754:    4882        .H      LDR      r0,[pc,#520] ; [0x1960] = 0x40010000
        0x00001756:    6800        .h      LDR      r0,[r0,#0]
        0x00001758:    2103        .!      MOVS     r1,#3
        0x0000175a:    06c9        ..      LSLS     r1,r1,#27
        0x0000175c:    4388        .C      BICS     r0,r0,r1
        0x0000175e:    4980        .I      LDR      r1,[pc,#512] ; [0x1960] = 0x40010000
        0x00001760:    6008        .`      STR      r0,[r1,#0]
        0x00001762:    4608        .F      MOV      r0,r1
        0x00001764:    6800        .h      LDR      r0,[r0,#0]
        0x00001766:    02c9        ..      LSLS     r1,r1,#11
        0x00001768:    4308        .C      ORRS     r0,r0,r1
        0x0000176a:    497d        }I      LDR      r1,[pc,#500] ; [0x1960] = 0x40010000
        0x0000176c:    6008        .`      STR      r0,[r1,#0]
        0x0000176e:    4608        .F      MOV      r0,r1
        0x00001770:    6800        .h      LDR      r0,[r0,#0]
        0x00001772:    0a00        ..      LSRS     r0,r0,#8
        0x00001774:    0200        ..      LSLS     r0,r0,#8
        0x00001776:    6008        .`      STR      r0,[r1,#0]
        0x00001778:    487a        zH      LDR      r0,[pc,#488] ; [0x1964] = 0x7530
        0x0000177a:    6048        H`      STR      r0,[r1,#4]
        0x0000177c:    4608        .F      MOV      r0,r1
        0x0000177e:    6800        .h      LDR      r0,[r0,#0]
        0x00001780:    0349        I.      LSLS     r1,r1,#13
        0x00001782:    4308        .C      ORRS     r0,r0,r1
        0x00001784:    4976        vI      LDR      r1,[pc,#472] ; [0x1960] = 0x40010000
        0x00001786:    6008        .`      STR      r0,[r1,#0]
        0x00001788:    1588        ..      ASRS     r0,r1,#22
        0x0000178a:    4977        wI      LDR      r1,[pc,#476] ; [0x1968] = 0xe000e100
        0x0000178c:    6008        .`      STR      r0,[r1,#0]
        0x0000178e:    4874        tH      LDR      r0,[pc,#464] ; [0x1960] = 0x40010000
        0x00001790:    6800        .h      LDR      r0,[r0,#0]
        0x00001792:    2101        .!      MOVS     r1,#1
        0x00001794:    0689        ..      LSLS     r1,r1,#26
        0x00001796:    4308        .C      ORRS     r0,r0,r1
        0x00001798:    4971        qI      LDR      r1,[pc,#452] ; [0x1960] = 0x40010000
        0x0000179a:    6008        .`      STR      r0,[r1,#0]
        0x0000179c:    4608        .F      MOV      r0,r1
        0x0000179e:    6800        .h      LDR      r0,[r0,#0]
        0x000017a0:    0389        ..      LSLS     r1,r1,#14
        0x000017a2:    4308        .C      ORRS     r0,r0,r1
        0x000017a4:    496e        nI      LDR      r1,[pc,#440] ; [0x1960] = 0x40010000
        0x000017a6:    6008        .`      STR      r0,[r1,#0]
        0x000017a8:    4770        pG      BX       lr
    Init_Timer1_ISR
        0x000017aa:    486c        lH      LDR      r0,[pc,#432] ; [0x195c] = 0x50000200
        0x000017ac:    6880        .h      LDR      r0,[r0,#8]
        0x000017ae:    2108        .!      MOVS     r1,#8
        0x000017b0:    4308        .C      ORRS     r0,r0,r1
        0x000017b2:    496a        jI      LDR      r1,[pc,#424] ; [0x195c] = 0x50000200
        0x000017b4:    6088        .`      STR      r0,[r1,#8]
        0x000017b6:    4608        .F      MOV      r0,r1
        0x000017b8:    6940        @i      LDR      r0,[r0,#0x14]
        0x000017ba:    2107        .!      MOVS     r1,#7
        0x000017bc:    0309        ..      LSLS     r1,r1,#12
        0x000017be:    4388        .C      BICS     r0,r0,r1
        0x000017c0:    4966        fI      LDR      r1,[pc,#408] ; [0x195c] = 0x50000200
        0x000017c2:    6148        Ha      STR      r0,[r1,#0x14]
        0x000017c4:    2005        .       MOVS     r0,#5
        0x000017c6:    0700        ..      LSLS     r0,r0,#28
        0x000017c8:    68c0        .h      LDR      r0,[r0,#0xc]
        0x000017ca:    2108        .!      MOVS     r1,#8
        0x000017cc:    4308        .C      ORRS     r0,r0,r1
        0x000017ce:    2105        .!      MOVS     r1,#5
        0x000017d0:    0709        ..      LSLS     r1,r1,#28
        0x000017d2:    60c8        .`      STR      r0,[r1,#0xc]
        0x000017d4:    4608        .F      MOV      r0,r1
        0x000017d6:    68c0        .h      LDR      r0,[r0,#0xc]
        0x000017d8:    2108        .!      MOVS     r1,#8
        0x000017da:    4388        .C      BICS     r0,r0,r1
        0x000017dc:    2105        .!      MOVS     r1,#5
        0x000017de:    0709        ..      LSLS     r1,r1,#28
        0x000017e0:    60c8        .`      STR      r0,[r1,#0xc]
        0x000017e2:    485f        _H      LDR      r0,[pc,#380] ; [0x1960] = 0x40010000
        0x000017e4:    6a00        .j      LDR      r0,[r0,#0x20]
        0x000017e6:    2103        .!      MOVS     r1,#3
        0x000017e8:    06c9        ..      LSLS     r1,r1,#27
        0x000017ea:    4388        .C      BICS     r0,r0,r1
        0x000017ec:    495c        \I      LDR      r1,[pc,#368] ; [0x1960] = 0x40010000
        0x000017ee:    6208        .b      STR      r0,[r1,#0x20]
        0x000017f0:    4608        .F      MOV      r0,r1
        0x000017f2:    6a00        .j      LDR      r0,[r0,#0x20]
        0x000017f4:    02c9        ..      LSLS     r1,r1,#11
        0x000017f6:    4308        .C      ORRS     r0,r0,r1
        0x000017f8:    4959        YI      LDR      r1,[pc,#356] ; [0x1960] = 0x40010000
        0x000017fa:    6208        .b      STR      r0,[r1,#0x20]
        0x000017fc:    4608        .F      MOV      r0,r1
        0x000017fe:    6a00        .j      LDR      r0,[r0,#0x20]
        0x00001800:    0a00        ..      LSRS     r0,r0,#8
        0x00001802:    0200        ..      LSLS     r0,r0,#8
        0x00001804:    6208        .b      STR      r0,[r1,#0x20]
        0x00001806:    4859        YH      LDR      r0,[pc,#356] ; [0x196c] = 0xea60
        0x00001808:    6248        Hb      STR      r0,[r1,#0x24]
        0x0000180a:    4608        .F      MOV      r0,r1
        0x0000180c:    6a00        .j      LDR      r0,[r0,#0x20]
        0x0000180e:    0349        I.      LSLS     r1,r1,#13
        0x00001810:    4308        .C      ORRS     r0,r0,r1
        0x00001812:    4953        SI      LDR      r1,[pc,#332] ; [0x1960] = 0x40010000
        0x00001814:    6208        .b      STR      r0,[r1,#0x20]
        0x00001816:    1548        H.      ASRS     r0,r1,#21
        0x00001818:    4953        SI      LDR      r1,[pc,#332] ; [0x1968] = 0xe000e100
        0x0000181a:    6008        .`      STR      r0,[r1,#0]
        0x0000181c:    4850        PH      LDR      r0,[pc,#320] ; [0x1960] = 0x40010000
        0x0000181e:    6a00        .j      LDR      r0,[r0,#0x20]
        0x00001820:    2101        .!      MOVS     r1,#1
        0x00001822:    0689        ..      LSLS     r1,r1,#26
        0x00001824:    4308        .C      ORRS     r0,r0,r1
        0x00001826:    494e        NI      LDR      r1,[pc,#312] ; [0x1960] = 0x40010000
        0x00001828:    6208        .b      STR      r0,[r1,#0x20]
        0x0000182a:    4608        .F      MOV      r0,r1
        0x0000182c:    6a00        .j      LDR      r0,[r0,#0x20]
        0x0000182e:    0389        ..      LSLS     r1,r1,#14
        0x00001830:    4308        .C      ORRS     r0,r0,r1
        0x00001832:    494b        KI      LDR      r1,[pc,#300] ; [0x1960] = 0x40010000
        0x00001834:    6208        .b      STR      r0,[r1,#0x20]
        0x00001836:    4770        pG      BX       lr
    Init_Timer2_ISR
        0x00001838:    4848        HH      LDR      r0,[pc,#288] ; [0x195c] = 0x50000200
        0x0000183a:    6880        .h      LDR      r0,[r0,#8]
        0x0000183c:    2110        .!      MOVS     r1,#0x10
        0x0000183e:    4308        .C      ORRS     r0,r0,r1
        0x00001840:    4946        FI      LDR      r1,[pc,#280] ; [0x195c] = 0x50000200
        0x00001842:    6088        .`      STR      r0,[r1,#8]
        0x00001844:    4608        .F      MOV      r0,r1
        0x00001846:    6940        @i      LDR      r0,[r0,#0x14]
        0x00001848:    2107        .!      MOVS     r1,#7
        0x0000184a:    0409        ..      LSLS     r1,r1,#16
        0x0000184c:    4388        .C      BICS     r0,r0,r1
        0x0000184e:    4943        CI      LDR      r1,[pc,#268] ; [0x195c] = 0x50000200
        0x00001850:    6148        Ha      STR      r0,[r1,#0x14]
        0x00001852:    2005        .       MOVS     r0,#5
        0x00001854:    0700        ..      LSLS     r0,r0,#28
        0x00001856:    68c0        .h      LDR      r0,[r0,#0xc]
        0x00001858:    2110        .!      MOVS     r1,#0x10
        0x0000185a:    4308        .C      ORRS     r0,r0,r1
        0x0000185c:    2105        .!      MOVS     r1,#5
        0x0000185e:    0709        ..      LSLS     r1,r1,#28
        0x00001860:    60c8        .`      STR      r0,[r1,#0xc]
        0x00001862:    4608        .F      MOV      r0,r1
        0x00001864:    68c0        .h      LDR      r0,[r0,#0xc]
        0x00001866:    2110        .!      MOVS     r1,#0x10
        0x00001868:    4388        .C      BICS     r0,r0,r1
        0x0000186a:    2105        .!      MOVS     r1,#5
        0x0000186c:    0709        ..      LSLS     r1,r1,#28
        0x0000186e:    60c8        .`      STR      r0,[r1,#0xc]
        0x00001870:    483f        ?H      LDR      r0,[pc,#252] ; [0x1970] = 0x40110000
        0x00001872:    6800        .h      LDR      r0,[r0,#0]
        0x00001874:    2103        .!      MOVS     r1,#3
        0x00001876:    06c9        ..      LSLS     r1,r1,#27
        0x00001878:    4388        .C      BICS     r0,r0,r1
        0x0000187a:    493d        =I      LDR      r1,[pc,#244] ; [0x1970] = 0x40110000
        0x0000187c:    6008        .`      STR      r0,[r1,#0]
        0x0000187e:    4608        .F      MOV      r0,r1
        0x00001880:    6800        .h      LDR      r0,[r0,#0]
        0x00001882:    2101        .!      MOVS     r1,#1
        0x00001884:    06c9        ..      LSLS     r1,r1,#27
        0x00001886:    4308        .C      ORRS     r0,r0,r1
        0x00001888:    4939        9I      LDR      r1,[pc,#228] ; [0x1970] = 0x40110000
        0x0000188a:    6008        .`      STR      r0,[r1,#0]
        0x0000188c:    4608        .F      MOV      r0,r1
        0x0000188e:    6800        .h      LDR      r0,[r0,#0]
        0x00001890:    0a00        ..      LSRS     r0,r0,#8
        0x00001892:    0200        ..      LSLS     r0,r0,#8
        0x00001894:    6008        .`      STR      r0,[r1,#0]
        0x00001896:    4837        7H      LDR      r0,[pc,#220] ; [0x1974] = 0x1d4c0
        0x00001898:    6048        H`      STR      r0,[r1,#4]
        0x0000189a:    4608        .F      MOV      r0,r1
        0x0000189c:    6800        .h      LDR      r0,[r0,#0]
        0x0000189e:    0349        I.      LSLS     r1,r1,#13
        0x000018a0:    4308        .C      ORRS     r0,r0,r1
        0x000018a2:    4933        3I      LDR      r1,[pc,#204] ; [0x1970] = 0x40110000
        0x000018a4:    6008        .`      STR      r0,[r1,#0]
        0x000018a6:    2001        .       MOVS     r0,#1
        0x000018a8:    0280        ..      LSLS     r0,r0,#10
        0x000018aa:    492f        /I      LDR      r1,[pc,#188] ; [0x1968] = 0xe000e100
        0x000018ac:    6008        .`      STR      r0,[r1,#0]
        0x000018ae:    4830        0H      LDR      r0,[pc,#192] ; [0x1970] = 0x40110000
        0x000018b0:    6800        .h      LDR      r0,[r0,#0]
        0x000018b2:    2101        .!      MOVS     r1,#1
        0x000018b4:    0689        ..      LSLS     r1,r1,#26
        0x000018b6:    4308        .C      ORRS     r0,r0,r1
        0x000018b8:    492d        -I      LDR      r1,[pc,#180] ; [0x1970] = 0x40110000
        0x000018ba:    6008        .`      STR      r0,[r1,#0]
        0x000018bc:    4608        .F      MOV      r0,r1
        0x000018be:    6800        .h      LDR      r0,[r0,#0]
        0x000018c0:    0389        ..      LSLS     r1,r1,#14
        0x000018c2:    4308        .C      ORRS     r0,r0,r1
        0x000018c4:    492a        *I      LDR      r1,[pc,#168] ; [0x1970] = 0x40110000
        0x000018c6:    6008        .`      STR      r0,[r1,#0]
        0x000018c8:    4770        pG      BX       lr
    Init_Timer3_ISR
        0x000018ca:    4824        $H      LDR      r0,[pc,#144] ; [0x195c] = 0x50000200
        0x000018cc:    6880        .h      LDR      r0,[r0,#8]
        0x000018ce:    2120         !      MOVS     r1,#0x20
        0x000018d0:    4308        .C      ORRS     r0,r0,r1
        0x000018d2:    4922        "I      LDR      r1,[pc,#136] ; [0x195c] = 0x50000200
        0x000018d4:    6088        .`      STR      r0,[r1,#8]
        0x000018d6:    4608        .F      MOV      r0,r1
        0x000018d8:    6940        @i      LDR      r0,[r0,#0x14]
        0x000018da:    2107        .!      MOVS     r1,#7
        0x000018dc:    0509        ..      LSLS     r1,r1,#20
        0x000018de:    4388        .C      BICS     r0,r0,r1
        0x000018e0:    491e        .I      LDR      r1,[pc,#120] ; [0x195c] = 0x50000200
        0x000018e2:    6148        Ha      STR      r0,[r1,#0x14]
        0x000018e4:    2005        .       MOVS     r0,#5
        0x000018e6:    0700        ..      LSLS     r0,r0,#28
        0x000018e8:    68c0        .h      LDR      r0,[r0,#0xc]
        0x000018ea:    2120         !      MOVS     r1,#0x20
        0x000018ec:    4308        .C      ORRS     r0,r0,r1
        0x000018ee:    2105        .!      MOVS     r1,#5
        0x000018f0:    0709        ..      LSLS     r1,r1,#28
        0x000018f2:    60c8        .`      STR      r0,[r1,#0xc]
        0x000018f4:    4608        .F      MOV      r0,r1
        0x000018f6:    68c0        .h      LDR      r0,[r0,#0xc]
        0x000018f8:    2120         !      MOVS     r1,#0x20
        0x000018fa:    4388        .C      BICS     r0,r0,r1
        0x000018fc:    2105        .!      MOVS     r1,#5
        0x000018fe:    0709        ..      LSLS     r1,r1,#28
        0x00001900:    60c8        .`      STR      r0,[r1,#0xc]
        0x00001902:    481b        .H      LDR      r0,[pc,#108] ; [0x1970] = 0x40110000
        0x00001904:    6a00        .j      LDR      r0,[r0,#0x20]
        0x00001906:    2103        .!      MOVS     r1,#3
        0x00001908:    06c9        ..      LSLS     r1,r1,#27
        0x0000190a:    4388        .C      BICS     r0,r0,r1
        0x0000190c:    4918        .I      LDR      r1,[pc,#96] ; [0x1970] = 0x40110000
        0x0000190e:    6208        .b      STR      r0,[r1,#0x20]
        0x00001910:    4608        .F      MOV      r0,r1
        0x00001912:    6a00        .j      LDR      r0,[r0,#0x20]
        0x00001914:    2101        .!      MOVS     r1,#1
        0x00001916:    06c9        ..      LSLS     r1,r1,#27
        0x00001918:    4308        .C      ORRS     r0,r0,r1
        0x0000191a:    4915        .I      LDR      r1,[pc,#84] ; [0x1970] = 0x40110000
        0x0000191c:    6208        .b      STR      r0,[r1,#0x20]
        0x0000191e:    4608        .F      MOV      r0,r1
        0x00001920:    6a00        .j      LDR      r0,[r0,#0x20]
        0x00001922:    0a00        ..      LSRS     r0,r0,#8
        0x00001924:    0200        ..      LSLS     r0,r0,#8
        0x00001926:    6208        .b      STR      r0,[r1,#0x20]
        0x00001928:    4813        .H      LDR      r0,[pc,#76] ; [0x1978] = 0x15f90
        0x0000192a:    6248        Hb      STR      r0,[r1,#0x24]
        0x0000192c:    4608        .F      MOV      r0,r1
        0x0000192e:    6a00        .j      LDR      r0,[r0,#0x20]
        0x00001930:    0349        I.      LSLS     r1,r1,#13
        0x00001932:    4308        .C      ORRS     r0,r0,r1
        0x00001934:    490e        .I      LDR      r1,[pc,#56] ; [0x1970] = 0x40110000
        0x00001936:    6208        .b      STR      r0,[r1,#0x20]
        0x00001938:    2001        .       MOVS     r0,#1
        0x0000193a:    02c0        ..      LSLS     r0,r0,#11
        0x0000193c:    490a        .I      LDR      r1,[pc,#40] ; [0x1968] = 0xe000e100
        0x0000193e:    6008        .`      STR      r0,[r1,#0]
        0x00001940:    480b        .H      LDR      r0,[pc,#44] ; [0x1970] = 0x40110000
        0x00001942:    6a00        .j      LDR      r0,[r0,#0x20]
        0x00001944:    2101        .!      MOVS     r1,#1
        0x00001946:    0689        ..      LSLS     r1,r1,#26
        0x00001948:    4308        .C      ORRS     r0,r0,r1
        0x0000194a:    4909        .I      LDR      r1,[pc,#36] ; [0x1970] = 0x40110000
        0x0000194c:    6208        .b      STR      r0,[r1,#0x20]
        0x0000194e:    4608        .F      MOV      r0,r1
        0x00001950:    6a00        .j      LDR      r0,[r0,#0x20]
        0x00001952:    0389        ..      LSLS     r1,r1,#14
        0x00001954:    4308        .C      ORRS     r0,r0,r1
        0x00001956:    4906        .I      LDR      r1,[pc,#24] ; [0x1970] = 0x40110000
        0x00001958:    6208        .b      STR      r0,[r1,#0x20]
        0x0000195a:    4770        pG      BX       lr
    $d
        0x0000195c:    50000200    ...P    DCD    1342177792
        0x00001960:    40010000    ...@    DCD    1073807360
        0x00001964:    00007530    0u..    DCD    30000
        0x00001968:    e000e100    ....    DCD    3758153984
        0x0000196c:    0000ea60    `...    DCD    60000
        0x00001970:    40110000    ...@    DCD    1074855936
        0x00001974:    0001d4c0    ....    DCD    120000
        0x00001978:    00015f90    ._..    DCD    90000
    $t
    .text
    Init_Uart0
        0x0000197c:    b510        ..      PUSH     {r4,lr}
        0x0000197e:    4604        .F      MOV      r4,r0
        0x00001980:    2005        .       MOVS     r0,#5
        0x00001982:    0700        ..      LSLS     r0,r0,#28
        0x00001984:    6bc0        .k      LDR      r0,[r0,#0x3c]
        0x00001986:    49a8        .I      LDR      r1,[pc,#672] ; [0x1c28] = 0xfffffcfc
        0x00001988:    4008        .@      ANDS     r0,r0,r1
        0x0000198a:    2105        .!      MOVS     r1,#5
        0x0000198c:    0709        ..      LSLS     r1,r1,#28
        0x0000198e:    63c8        .c      STR      r0,[r1,#0x3c]
        0x00001990:    4608        .F      MOV      r0,r1
        0x00001992:    6bc0        .k      LDR      r0,[r0,#0x3c]
        0x00001994:    2103        .!      MOVS     r1,#3
        0x00001996:    4308        .C      ORRS     r0,r0,r1
        0x00001998:    2105        .!      MOVS     r1,#5
        0x0000199a:    0709        ..      LSLS     r1,r1,#28
        0x0000199c:    63c8        .c      STR      r0,[r1,#0x3c]
        0x0000199e:    48a3        .H      LDR      r0,[pc,#652] ; [0x1c2c] = 0x50000200
        0x000019a0:    6880        .h      LDR      r0,[r0,#8]
        0x000019a2:    2101        .!      MOVS     r1,#1
        0x000019a4:    0409        ..      LSLS     r1,r1,#16
        0x000019a6:    4308        .C      ORRS     r0,r0,r1
        0x000019a8:    49a0        .I      LDR      r1,[pc,#640] ; [0x1c2c] = 0x50000200
        0x000019aa:    6088        .`      STR      r0,[r1,#8]
        0x000019ac:    4608        .F      MOV      r0,r1
        0x000019ae:    6940        @i      LDR      r0,[r0,#0x14]
        0x000019b0:    2103        .!      MOVS     r1,#3
        0x000019b2:    0609        ..      LSLS     r1,r1,#24
        0x000019b4:    4388        .C      BICS     r0,r0,r1
        0x000019b6:    499d        .I      LDR      r1,[pc,#628] ; [0x1c2c] = 0x50000200
        0x000019b8:    6148        Ha      STR      r0,[r1,#0x14]
        0x000019ba:    4608        .F      MOV      r0,r1
        0x000019bc:    6980        .i      LDR      r0,[r0,#0x18]
        0x000019be:    210f        .!      MOVS     r1,#0xf
        0x000019c0:    0209        ..      LSLS     r1,r1,#8
        0x000019c2:    4388        .C      BICS     r0,r0,r1
        0x000019c4:    4999        .I      LDR      r1,[pc,#612] ; [0x1c2c] = 0x50000200
        0x000019c6:    6188        .a      STR      r0,[r1,#0x18]
        0x000019c8:    2005        .       MOVS     r0,#5
        0x000019ca:    0700        ..      LSLS     r0,r0,#28
        0x000019cc:    68c0        .h      LDR      r0,[r0,#0xc]
        0x000019ce:    01c9        ..      LSLS     r1,r1,#7
        0x000019d0:    4308        .C      ORRS     r0,r0,r1
        0x000019d2:    2105        .!      MOVS     r1,#5
        0x000019d4:    0709        ..      LSLS     r1,r1,#28
        0x000019d6:    60c8        .`      STR      r0,[r1,#0xc]
        0x000019d8:    4608        .F      MOV      r0,r1
        0x000019da:    68c0        .h      LDR      r0,[r0,#0xc]
        0x000019dc:    2101        .!      MOVS     r1,#1
        0x000019de:    0409        ..      LSLS     r1,r1,#16
        0x000019e0:    4388        .C      BICS     r0,r0,r1
        0x000019e2:    2105        .!      MOVS     r1,#5
        0x000019e4:    0709        ..      LSLS     r1,r1,#28
        0x000019e6:    60c8        .`      STR      r0,[r1,#0xc]
        0x000019e8:    4891        .H      LDR      r0,[pc,#580] ; [0x1c30] = 0x40050000
        0x000019ea:    6880        .h      LDR      r0,[r0,#8]
        0x000019ec:    2104        .!      MOVS     r1,#4
        0x000019ee:    4308        .C      ORRS     r0,r0,r1
        0x000019f0:    498f        .I      LDR      r1,[pc,#572] ; [0x1c30] = 0x40050000
        0x000019f2:    6088        .`      STR      r0,[r1,#8]
        0x000019f4:    4608        .F      MOV      r0,r1
        0x000019f6:    6880        .h      LDR      r0,[r0,#8]
        0x000019f8:    2102        .!      MOVS     r1,#2
        0x000019fa:    4308        .C      ORRS     r0,r0,r1
        0x000019fc:    498c        .I      LDR      r1,[pc,#560] ; [0x1c30] = 0x40050000
        0x000019fe:    6088        .`      STR      r0,[r1,#8]
        0x00001a00:    4608        .F      MOV      r0,r1
        0x00001a02:    68c0        .h      LDR      r0,[r0,#0xc]
        0x00001a04:    2108        .!      MOVS     r1,#8
        0x00001a06:    4388        .C      BICS     r0,r0,r1
        0x00001a08:    4989        .I      LDR      r1,[pc,#548] ; [0x1c30] = 0x40050000
        0x00001a0a:    60c8        .`      STR      r0,[r1,#0xc]
        0x00001a0c:    4608        .F      MOV      r0,r1
        0x00001a0e:    68c0        .h      LDR      r0,[r0,#0xc]
        0x00001a10:    0880        ..      LSRS     r0,r0,#2
        0x00001a12:    0080        ..      LSLS     r0,r0,#2
        0x00001a14:    60c8        .`      STR      r0,[r1,#0xc]
        0x00001a16:    4608        .F      MOV      r0,r1
        0x00001a18:    68c0        .h      LDR      r0,[r0,#0xc]
        0x00001a1a:    2103        .!      MOVS     r1,#3
        0x00001a1c:    4308        .C      ORRS     r0,r0,r1
        0x00001a1e:    4984        .I      LDR      r1,[pc,#528] ; [0x1c30] = 0x40050000
        0x00001a20:    60c8        .`      STR      r0,[r1,#0xc]
        0x00001a22:    4608        .F      MOV      r0,r1
        0x00001a24:    68c0        .h      LDR      r0,[r0,#0xc]
        0x00001a26:    2104        .!      MOVS     r1,#4
        0x00001a28:    4388        .C      BICS     r0,r0,r1
        0x00001a2a:    4981        .I      LDR      r1,[pc,#516] ; [0x1c30] = 0x40050000
        0x00001a2c:    60c8        .`      STR      r0,[r1,#0xc]
        0x00001a2e:    4608        .F      MOV      r0,r1
        0x00001a30:    6a40        @j      LDR      r0,[r0,#0x24]
        0x00001a32:    2101        .!      MOVS     r1,#1
        0x00001a34:    0749        I.      LSLS     r1,r1,#29
        0x00001a36:    4308        .C      ORRS     r0,r0,r1
        0x00001a38:    497d        }I      LDR      r1,[pc,#500] ; [0x1c30] = 0x40050000
        0x00001a3a:    6248        Hb      STR      r0,[r1,#0x24]
        0x00001a3c:    4608        .F      MOV      r0,r1
        0x00001a3e:    6a40        @j      LDR      r0,[r0,#0x24]
        0x00001a40:    2101        .!      MOVS     r1,#1
        0x00001a42:    0709        ..      LSLS     r1,r1,#28
        0x00001a44:    4308        .C      ORRS     r0,r0,r1
        0x00001a46:    497a        zI      LDR      r1,[pc,#488] ; [0x1c30] = 0x40050000
        0x00001a48:    6248        Hb      STR      r0,[r1,#0x24]
        0x00001a4a:    4621        !F      MOV      r1,r4
        0x00001a4c:    4879        yH      LDR      r0,[pc,#484] ; [0x1c34] = 0xb71b00
        0x00001a4e:    f000f9f4    ....    BL       __aeabi_uidiv ; 0x1e3a
        0x00001a52:    1e80        ..      SUBS     r0,r0,#2
        0x00001a54:    4976        vI      LDR      r1,[pc,#472] ; [0x1c30] = 0x40050000
        0x00001a56:    6a49        Ij      LDR      r1,[r1,#0x24]
        0x00001a58:    4308        .C      ORRS     r0,r0,r1
        0x00001a5a:    4975        uI      LDR      r1,[pc,#468] ; [0x1c30] = 0x40050000
        0x00001a5c:    6248        Hb      STR      r0,[r1,#0x24]
        0x00001a5e:    4608        .F      MOV      r0,r1
        0x00001a60:    6840        @h      LDR      r0,[r0,#4]
        0x00001a62:    2101        .!      MOVS     r1,#1
        0x00001a64:    4308        .C      ORRS     r0,r0,r1
        0x00001a66:    4972        rI      LDR      r1,[pc,#456] ; [0x1c30] = 0x40050000
        0x00001a68:    6048        H`      STR      r0,[r1,#4]
        0x00001a6a:    4873        sH      LDR      r0,[pc,#460] ; [0x1c38] = 0xe000e100
        0x00001a6c:    6800        .h      LDR      r0,[r0,#0]
        0x00001a6e:    2101        .!      MOVS     r1,#1
        0x00001a70:    0309        ..      LSLS     r1,r1,#12
        0x00001a72:    4308        .C      ORRS     r0,r0,r1
        0x00001a74:    4970        pI      LDR      r1,[pc,#448] ; [0x1c38] = 0xe000e100
        0x00001a76:    6008        .`      STR      r0,[r1,#0]
        0x00001a78:    bd10        ..      POP      {r4,pc}
    UART0_IRQHandler
        0x00001a7a:    b570        p.      PUSH     {r4-r6,lr}
        0x00001a7c:    2400        .$      MOVS     r4,#0
        0x00001a7e:    2501        .%      MOVS     r5,#1
        0x00001a80:    486b        kH      LDR      r0,[pc,#428] ; [0x1c30] = 0x40050000
        0x00001a82:    6980        .i      LDR      r0,[r0,#0x18]
        0x00001a84:    0480        ..      LSLS     r0,r0,#18
        0x00001a86:    0e84        ..      LSRS     r4,r0,#26
        0x00001a88:    2c06        .,      CMP      r4,#6
        0x00001a8a:    db02        ..      BLT      0x1a92 ; UART0_IRQHandler + 24
        0x00001a8c:    2001        .       MOVS     r0,#1
        0x00001a8e:    496b        kI      LDR      r1,[pc,#428] ; [0x1c3c] = 0x20000044
        0x00001a90:    6008        .`      STR      r0,[r1,#0]
        0x00001a92:    486a        jH      LDR      r0,[pc,#424] ; [0x1c3c] = 0x20000044
        0x00001a94:    6800        .h      LDR      r0,[r0,#0]
        0x00001a96:    2801        .(      CMP      r0,#1
        0x00001a98:    d11c        ..      BNE      0x1ad4 ; UART0_IRQHandler + 90
        0x00001a9a:    4621        !F      MOV      r1,r4
        0x00001a9c:    a068        h.      ADR      r0,{pc}+0x1a4 ; 0x1c40
        0x00001a9e:    f000f901    ....    BL       __2printf ; 0x1ca4
        0x00001aa2:    4863        cH      LDR      r0,[pc,#396] ; [0x1c30] = 0x40050000
        0x00001aa4:    6800        .h      LDR      r0,[r0,#0]
        0x00001aa6:    0061        a.      LSLS     r1,r4,#1
        0x00001aa8:    4a6a        jJ      LDR      r2,[pc,#424] ; [0x1c54] = 0x2000008c
        0x00001aaa:    5250        PR      STRH     r0,[r2,r1]
        0x00001aac:    0060        `.      LSLS     r0,r4,#1
        0x00001aae:    5a11        .Z      LDRH     r1,[r2,r0]
        0x00001ab0:    a069        i.      ADR      r0,{pc}+0x1a8 ; 0x1c58
        0x00001ab2:    f000f8f7    ....    BL       __2printf ; 0x1ca4
        0x00001ab6:    485e        ^H      LDR      r0,[pc,#376] ; [0x1c30] = 0x40050000
        0x00001ab8:    6980        .i      LDR      r0,[r0,#0x18]
        0x00001aba:    2101        .!      MOVS     r1,#1
        0x00001abc:    0389        ..      LSLS     r1,r1,#14
        0x00001abe:    4008        .@      ANDS     r0,r0,r1
        0x00001ac0:    0b85        ..      LSRS     r5,r0,#14
        0x00001ac2:    4629        )F      MOV      r1,r5
        0x00001ac4:    a069        i.      ADR      r0,{pc}+0x1a8 ; 0x1c6c
        0x00001ac6:    f000f8ed    ....    BL       __2printf ; 0x1ca4
        0x00001aca:    2d00        .-      CMP      r5,#0
        0x00001acc:    d002        ..      BEQ      0x1ad4 ; UART0_IRQHandler + 90
        0x00001ace:    2000        .       MOVS     r0,#0
        0x00001ad0:    495a        ZI      LDR      r1,[pc,#360] ; [0x1c3c] = 0x20000044
        0x00001ad2:    6008        .`      STR      r0,[r1,#0]
        0x00001ad4:    bd70        p.      POP      {r4-r6,pc}
    Init_Uart1
        0x00001ad6:    b510        ..      PUSH     {r4,lr}
        0x00001ad8:    4604        .F      MOV      r4,r0
        0x00001ada:    2005        .       MOVS     r0,#5
        0x00001adc:    0700        ..      LSLS     r0,r0,#28
        0x00001ade:    6b40        @k      LDR      r0,[r0,#0x34]
        0x00001ae0:    4967        gI      LDR      r1,[pc,#412] ; [0x1c80] = 0xfffff3f3
        0x00001ae2:    4008        .@      ANDS     r0,r0,r1
        0x00001ae4:    2105        .!      MOVS     r1,#5
        0x00001ae6:    0709        ..      LSLS     r1,r1,#28
        0x00001ae8:    6348        Hc      STR      r0,[r1,#0x34]
        0x00001aea:    4608        .F      MOV      r0,r1
        0x00001aec:    6b40        @k      LDR      r0,[r0,#0x34]
        0x00001aee:    2103        .!      MOVS     r1,#3
        0x00001af0:    0289        ..      LSLS     r1,r1,#10
        0x00001af2:    4308        .C      ORRS     r0,r0,r1
        0x00001af4:    2105        .!      MOVS     r1,#5
        0x00001af6:    0709        ..      LSLS     r1,r1,#28
        0x00001af8:    6348        Hc      STR      r0,[r1,#0x34]
        0x00001afa:    484c        LH      LDR      r0,[pc,#304] ; [0x1c2c] = 0x50000200
        0x00001afc:    6880        .h      LDR      r0,[r0,#8]
        0x00001afe:    2101        .!      MOVS     r1,#1
        0x00001b00:    0449        I.      LSLS     r1,r1,#17
        0x00001b02:    4308        .C      ORRS     r0,r0,r1
        0x00001b04:    4949        II      LDR      r1,[pc,#292] ; [0x1c2c] = 0x50000200
        0x00001b06:    6088        .`      STR      r0,[r1,#8]
        0x00001b08:    4608        .F      MOV      r0,r1
        0x00001b0a:    6940        @i      LDR      r0,[r0,#0x14]
        0x00001b0c:    2103        .!      MOVS     r1,#3
        0x00001b0e:    0609        ..      LSLS     r1,r1,#24
        0x00001b10:    4388        .C      BICS     r0,r0,r1
        0x00001b12:    4946        FI      LDR      r1,[pc,#280] ; [0x1c2c] = 0x50000200
        0x00001b14:    6148        Ha      STR      r0,[r1,#0x14]
        0x00001b16:    4608        .F      MOV      r0,r1
        0x00001b18:    6980        .i      LDR      r0,[r0,#0x18]
        0x00001b1a:    210f        .!      MOVS     r1,#0xf
        0x00001b1c:    0209        ..      LSLS     r1,r1,#8
        0x00001b1e:    4388        .C      BICS     r0,r0,r1
        0x00001b20:    4942        BI      LDR      r1,[pc,#264] ; [0x1c2c] = 0x50000200
        0x00001b22:    6188        .a      STR      r0,[r1,#0x18]
        0x00001b24:    2005        .       MOVS     r0,#5
        0x00001b26:    0700        ..      LSLS     r0,r0,#28
        0x00001b28:    68c0        .h      LDR      r0,[r0,#0xc]
        0x00001b2a:    0209        ..      LSLS     r1,r1,#8
        0x00001b2c:    4308        .C      ORRS     r0,r0,r1
        0x00001b2e:    2105        .!      MOVS     r1,#5
        0x00001b30:    0709        ..      LSLS     r1,r1,#28
        0x00001b32:    60c8        .`      STR      r0,[r1,#0xc]
        0x00001b34:    4608        .F      MOV      r0,r1
        0x00001b36:    68c0        .h      LDR      r0,[r0,#0xc]
        0x00001b38:    2101        .!      MOVS     r1,#1
        0x00001b3a:    0449        I.      LSLS     r1,r1,#17
        0x00001b3c:    4388        .C      BICS     r0,r0,r1
        0x00001b3e:    2105        .!      MOVS     r1,#5
        0x00001b40:    0709        ..      LSLS     r1,r1,#28
        0x00001b42:    60c8        .`      STR      r0,[r1,#0xc]
        0x00001b44:    484f        OH      LDR      r0,[pc,#316] ; [0x1c84] = 0x40150000
        0x00001b46:    6880        .h      LDR      r0,[r0,#8]
        0x00001b48:    2104        .!      MOVS     r1,#4
        0x00001b4a:    4308        .C      ORRS     r0,r0,r1
        0x00001b4c:    494d        MI      LDR      r1,[pc,#308] ; [0x1c84] = 0x40150000
        0x00001b4e:    6088        .`      STR      r0,[r1,#8]
        0x00001b50:    4608        .F      MOV      r0,r1
        0x00001b52:    6880        .h      LDR      r0,[r0,#8]
        0x00001b54:    2102        .!      MOVS     r1,#2
        0x00001b56:    4308        .C      ORRS     r0,r0,r1
        0x00001b58:    494a        JI      LDR      r1,[pc,#296] ; [0x1c84] = 0x40150000
        0x00001b5a:    6088        .`      STR      r0,[r1,#8]
        0x00001b5c:    4608        .F      MOV      r0,r1
        0x00001b5e:    68c0        .h      LDR      r0,[r0,#0xc]
        0x00001b60:    2108        .!      MOVS     r1,#8
        0x00001b62:    4388        .C      BICS     r0,r0,r1
        0x00001b64:    4947        GI      LDR      r1,[pc,#284] ; [0x1c84] = 0x40150000
        0x00001b66:    60c8        .`      STR      r0,[r1,#0xc]
        0x00001b68:    4608        .F      MOV      r0,r1
        0x00001b6a:    68c0        .h      LDR      r0,[r0,#0xc]
        0x00001b6c:    0880        ..      LSRS     r0,r0,#2
        0x00001b6e:    0080        ..      LSLS     r0,r0,#2
        0x00001b70:    1cc0        ..      ADDS     r0,r0,#3
        0x00001b72:    60c8        .`      STR      r0,[r1,#0xc]
        0x00001b74:    4608        .F      MOV      r0,r1
        0x00001b76:    68c0        .h      LDR      r0,[r0,#0xc]
        0x00001b78:    2104        .!      MOVS     r1,#4
        0x00001b7a:    4388        .C      BICS     r0,r0,r1
        0x00001b7c:    4941        AI      LDR      r1,[pc,#260] ; [0x1c84] = 0x40150000
        0x00001b7e:    60c8        .`      STR      r0,[r1,#0xc]
        0x00001b80:    4608        .F      MOV      r0,r1
        0x00001b82:    6a40        @j      LDR      r0,[r0,#0x24]
        0x00001b84:    2101        .!      MOVS     r1,#1
        0x00001b86:    0749        I.      LSLS     r1,r1,#29
        0x00001b88:    4308        .C      ORRS     r0,r0,r1
        0x00001b8a:    493e        >I      LDR      r1,[pc,#248] ; [0x1c84] = 0x40150000
        0x00001b8c:    6248        Hb      STR      r0,[r1,#0x24]
        0x00001b8e:    4608        .F      MOV      r0,r1
        0x00001b90:    6a40        @j      LDR      r0,[r0,#0x24]
        0x00001b92:    2101        .!      MOVS     r1,#1
        0x00001b94:    0709        ..      LSLS     r1,r1,#28
        0x00001b96:    4308        .C      ORRS     r0,r0,r1
        0x00001b98:    493a        :I      LDR      r1,[pc,#232] ; [0x1c84] = 0x40150000
        0x00001b9a:    6248        Hb      STR      r0,[r1,#0x24]
        0x00001b9c:    4621        !F      MOV      r1,r4
        0x00001b9e:    4825        %H      LDR      r0,[pc,#148] ; [0x1c34] = 0xb71b00
        0x00001ba0:    f000f94b    ..K.    BL       __aeabi_uidiv ; 0x1e3a
        0x00001ba4:    1e80        ..      SUBS     r0,r0,#2
        0x00001ba6:    4937        7I      LDR      r1,[pc,#220] ; [0x1c84] = 0x40150000
        0x00001ba8:    6a49        Ij      LDR      r1,[r1,#0x24]
        0x00001baa:    4308        .C      ORRS     r0,r0,r1
        0x00001bac:    4935        5I      LDR      r1,[pc,#212] ; [0x1c84] = 0x40150000
        0x00001bae:    6248        Hb      STR      r0,[r1,#0x24]
        0x00001bb0:    4608        .F      MOV      r0,r1
        0x00001bb2:    6840        @h      LDR      r0,[r0,#4]
        0x00001bb4:    2101        .!      MOVS     r1,#1
        0x00001bb6:    4308        .C      ORRS     r0,r0,r1
        0x00001bb8:    4932        2I      LDR      r1,[pc,#200] ; [0x1c84] = 0x40150000
        0x00001bba:    6048        H`      STR      r0,[r1,#4]
        0x00001bbc:    481e        .H      LDR      r0,[pc,#120] ; [0x1c38] = 0xe000e100
        0x00001bbe:    6800        .h      LDR      r0,[r0,#0]
        0x00001bc0:    2101        .!      MOVS     r1,#1
        0x00001bc2:    0349        I.      LSLS     r1,r1,#13
        0x00001bc4:    4308        .C      ORRS     r0,r0,r1
        0x00001bc6:    491c        .I      LDR      r1,[pc,#112] ; [0x1c38] = 0xe000e100
        0x00001bc8:    6008        .`      STR      r0,[r1,#0]
        0x00001bca:    bd10        ..      POP      {r4,pc}
    UART1_IRQHandler
        0x00001bcc:    b570        p.      PUSH     {r4-r6,lr}
        0x00001bce:    2400        .$      MOVS     r4,#0
        0x00001bd0:    2501        .%      MOVS     r5,#1
        0x00001bd2:    482c        ,H      LDR      r0,[pc,#176] ; [0x1c84] = 0x40150000
        0x00001bd4:    6980        .i      LDR      r0,[r0,#0x18]
        0x00001bd6:    0480        ..      LSLS     r0,r0,#18
        0x00001bd8:    0e84        ..      LSRS     r4,r0,#26
        0x00001bda:    2c06        .,      CMP      r4,#6
        0x00001bdc:    db02        ..      BLT      0x1be4 ; UART1_IRQHandler + 24
        0x00001bde:    2001        .       MOVS     r0,#1
        0x00001be0:    4929        )I      LDR      r1,[pc,#164] ; [0x1c88] = 0x20000048
        0x00001be2:    6008        .`      STR      r0,[r1,#0]
        0x00001be4:    4828        (H      LDR      r0,[pc,#160] ; [0x1c88] = 0x20000048
        0x00001be6:    6800        .h      LDR      r0,[r0,#0]
        0x00001be8:    2801        .(      CMP      r0,#1
        0x00001bea:    d11c        ..      BNE      0x1c26 ; UART1_IRQHandler + 90
        0x00001bec:    4621        !F      MOV      r1,r4
        0x00001bee:    a014        ..      ADR      r0,{pc}+0x52 ; 0x1c40
        0x00001bf0:    f000f858    ..X.    BL       __2printf ; 0x1ca4
        0x00001bf4:    4823        #H      LDR      r0,[pc,#140] ; [0x1c84] = 0x40150000
        0x00001bf6:    6800        .h      LDR      r0,[r0,#0]
        0x00001bf8:    0061        a.      LSLS     r1,r4,#1
        0x00001bfa:    4a24        $J      LDR      r2,[pc,#144] ; [0x1c8c] = 0x20000098
        0x00001bfc:    5250        PR      STRH     r0,[r2,r1]
        0x00001bfe:    0060        `.      LSLS     r0,r4,#1
        0x00001c00:    5a11        .Z      LDRH     r1,[r2,r0]
        0x00001c02:    a023        #.      ADR      r0,{pc}+0x8e ; 0x1c90
        0x00001c04:    f000f84e    ..N.    BL       __2printf ; 0x1ca4
        0x00001c08:    481e        .H      LDR      r0,[pc,#120] ; [0x1c84] = 0x40150000
        0x00001c0a:    6980        .i      LDR      r0,[r0,#0x18]
        0x00001c0c:    2101        .!      MOVS     r1,#1
        0x00001c0e:    0389        ..      LSLS     r1,r1,#14
        0x00001c10:    4008        .@      ANDS     r0,r0,r1
        0x00001c12:    0b85        ..      LSRS     r5,r0,#14
        0x00001c14:    4629        )F      MOV      r1,r5
        0x00001c16:    a015        ..      ADR      r0,{pc}+0x56 ; 0x1c6c
        0x00001c18:    f000f844    ..D.    BL       __2printf ; 0x1ca4
        0x00001c1c:    2d00        .-      CMP      r5,#0
        0x00001c1e:    d002        ..      BEQ      0x1c26 ; UART1_IRQHandler + 90
        0x00001c20:    2000        .       MOVS     r0,#0
        0x00001c22:    4919        .I      LDR      r1,[pc,#100] ; [0x1c88] = 0x20000048
        0x00001c24:    6008        .`      STR      r0,[r1,#0]
        0x00001c26:    bd70        p.      POP      {r4-r6,pc}
    $d
        0x00001c28:    fffffcfc    ....    DCD    4294966524
        0x00001c2c:    50000200    ...P    DCD    1342177792
        0x00001c30:    40050000    ...@    DCD    1074069504
        0x00001c34:    00b71b00    ....    DCD    12000000
        0x00001c38:    e000e100    ....    DCD    3758153984
        0x00001c3c:    20000044    D..     DCD    536870980
        0x00001c40:    66667542    Buff    DCD    1717990722
        0x00001c44:    756f4320     Cou    DCD    1970225952
        0x00001c48:    203a746e    nt:     DCD    540701806
        0x00001c4c:    09096425    %d..    DCD    151610405
        0x00001c50:    00000000    ....    DCD    0
        0x00001c54:    2000008c    ...     DCD    536871052
        0x00001c58:    54524155    UART    DCD    1414676821
        0x00001c5c:    61442030    0 Da    DCD    1631854640
        0x00001c60:    203a6174    ta:     DCD    540696948
        0x00001c64:    09096425    %d..    DCD    151610405
        0x00001c68:    00000000    ....    DCD    0
        0x00001c6c:    74706d45    Empt    DCD    1953525061
        0x00001c70:    3d792879    y(y=    DCD    1031350393
        0x00001c74:    3d6e2c31    1,n=    DCD    1030630449
        0x00001c78:    203a2930    0):     DCD    540682544
        0x00001c7c:    000a6425    %d..    DCD    680997
        0x00001c80:    fffff3f3    ....    DCD    4294964211
        0x00001c84:    40150000    ...@    DCD    1075118080
        0x00001c88:    20000048    H..     DCD    536870984
        0x00001c8c:    20000098    ...     DCD    536871064
        0x00001c90:    54524155    UART    DCD    1414676821
        0x00001c94:    61442031    1 Da    DCD    1631854641
        0x00001c98:    203a6174    ta:     DCD    540696948
        0x00001c9c:    09096425    %d..    DCD    151610405
        0x00001ca0:    00000000    ....    DCD    0
    $t
    .text
    __2printf
        0x00001ca4:    b40f        ..      PUSH     {r0-r3}
        0x00001ca6:    4905        .I      LDR      r1,[pc,#20] ; [0x1cbc] = 0x2000001c
        0x00001ca8:    b510        ..      PUSH     {r4,lr}
        0x00001caa:    aa03        ..      ADD      r2,sp,#0xc
        0x00001cac:    9802        ..      LDR      r0,[sp,#8]
        0x00001cae:    f001fa19    ....    BL       _printf_char_file ; 0x30e4
        0x00001cb2:    bc10        ..      POP      {r4}
        0x00001cb4:    bc08        ..      POP      {r3}
        0x00001cb6:    b004        ..      ADD      sp,sp,#0x10
        0x00001cb8:    4718        .G      BX       r3
    $d
        0x00001cba:    0000        ..      DCW    0
        0x00001cbc:    2000001c    ...     DCD    536870940
    $t
    .text
    _printf_int_dec
        0x00001cc0:    b5f7        ..      PUSH     {r0-r2,r4-r7,lr}
        0x00001cc2:    2500        .%      MOVS     r5,#0
        0x00001cc4:    2975        u)      CMP      r1,#0x75
        0x00001cc6:    6810        .h      LDR      r0,[r2,#0]
        0x00001cc8:    9900        ..      LDR      r1,[sp,#0]
        0x00001cca:    a614        ..      ADR      r6,{pc}+0x52 ; 0x1d1c
        0x00001ccc:    d011        ..      BEQ      0x1cf2 ; _printf_int_dec + 50
        0x00001cce:    46c0        .F      MOV      r8,r8
        0x00001cd0:    46c0        .F      MOV      r8,r8
        0x00001cd2:    2800        .(      CMP      r0,#0
        0x00001cd4:    da02        ..      BGE      0x1cdc ; _printf_int_dec + 28
        0x00001cd6:    4240        @B      RSBS     r0,r0,#0
        0x00001cd8:    a611        ..      ADR      r6,{pc}+0x48 ; 0x1d20
        0x00001cda:    e008        ..      B        0x1cee ; _printf_int_dec + 46
        0x00001cdc:    9900        ..      LDR      r1,[sp,#0]
        0x00001cde:    6809        .h      LDR      r1,[r1,#0]
        0x00001ce0:    078a        ..      LSLS     r2,r1,#30
        0x00001ce2:    d501        ..      BPL      0x1ce8 ; _printf_int_dec + 40
        0x00001ce4:    a60f        ..      ADR      r6,{pc}+0x40 ; 0x1d24
        0x00001ce6:    e002        ..      B        0x1cee ; _printf_int_dec + 46
        0x00001ce8:    0749        I.      LSLS     r1,r1,#29
        0x00001cea:    d504        ..      BPL      0x1cf6 ; _printf_int_dec + 54
        0x00001cec:    a60e        ..      ADR      r6,{pc}+0x3c ; 0x1d28
        0x00001cee:    2501        .%      MOVS     r5,#1
        0x00001cf0:    e001        ..      B        0x1cf6 ; _printf_int_dec + 54
        0x00001cf2:    46c0        .F      MOV      r8,r8
        0x00001cf4:    46c0        .F      MOV      r8,r8
        0x00001cf6:    9f00        ..      LDR      r7,[sp,#0]
        0x00001cf8:    2400        .$      MOVS     r4,#0
        0x00001cfa:    3724        $7      ADDS     r7,r7,#0x24
        0x00001cfc:    e004        ..      B        0x1d08 ; _printf_int_dec + 72
        0x00001cfe:    f001fa05    ....    BL       __rt_udiv10 ; 0x310c
        0x00001d02:    3130        01      ADDS     r1,r1,#0x30
        0x00001d04:    5539        9U      STRB     r1,[r7,r4]
        0x00001d06:    1c64        d.      ADDS     r4,r4,#1
        0x00001d08:    2800        .(      CMP      r0,#0
        0x00001d0a:    d1f8        ..      BNE      0x1cfe ; _printf_int_dec + 62
        0x00001d0c:    462b        +F      MOV      r3,r5
        0x00001d0e:    4632        2F      MOV      r2,r6
        0x00001d10:    4621        !F      MOV      r1,r4
        0x00001d12:    9800        ..      LDR      r0,[sp,#0]
        0x00001d14:    f000ff83    ....    BL       _printf_int_common ; 0x2c1e
        0x00001d18:    bdfe        ..      POP      {r1-r7,pc}
    $d
        0x00001d1a:    0000        ..      DCW    0
        0x00001d1c:    00000000    ....    DCD    0
        0x00001d20:    0000002d    -...    DCD    45
        0x00001d24:    0000002b    +...    DCD    43
        0x00001d28:    00000020     ...    DCD    32
    $t
    .text
    __printf
        0x00001d2c:    b5f3        ..      PUSH     {r0,r1,r4-r7,lr}
        0x00001d2e:    4604        .F      MOV      r4,r0
        0x00001d30:    2000        .       MOVS     r0,#0
        0x00001d32:    b081        ..      SUB      sp,sp,#4
        0x00001d34:    6220         b      STR      r0,[r4,#0x20]
        0x00001d36:    4620         F      MOV      r0,r4
        0x00001d38:    68e1        .h      LDR      r1,[r4,#0xc]
        0x00001d3a:    4788        .G      BLX      r1
        0x00001d3c:    2800        .(      CMP      r0,#0
        0x00001d3e:    d07a        z.      BEQ      0x1e36 ; __printf + 266
        0x00001d40:    2825        %(      CMP      r0,#0x25
        0x00001d42:    d002        ..      BEQ      0x1d4a ; __printf + 30
        0x00001d44:    6862        bh      LDR      r2,[r4,#4]
        0x00001d46:    68a1        .h      LDR      r1,[r4,#8]
        0x00001d48:    e071        q.      B        0x1e2e ; __printf + 258
        0x00001d4a:    68e1        .h      LDR      r1,[r4,#0xc]
        0x00001d4c:    4620         F      MOV      r0,r4
        0x00001d4e:    2500        .%      MOVS     r5,#0
        0x00001d50:    4788        .G      BLX      r1
        0x00001d52:    4606        .F      MOV      r6,r0
        0x00001d54:    2000        .       MOVS     r0,#0
        0x00001d56:    61e0        .a      STR      r0,[r4,#0x1c]
        0x00001d58:    4607        .F      MOV      r7,r0
        0x00001d5a:    61a0        .a      STR      r0,[r4,#0x18]
        0x00001d5c:    2e2a        *.      CMP      r6,#0x2a
        0x00001d5e:    d00a        ..      BEQ      0x1d76 ; __printf + 74
        0x00001d60:    4630        0F      MOV      r0,r6
        0x00001d62:    f001fe7f    ....    BL       _is_digit ; 0x3a64
        0x00001d66:    2800        .(      CMP      r0,#0
        0x00001d68:    d027        '.      BEQ      0x1dba ; __printf + 142
        0x00001d6a:    3e30        0>      SUBS     r6,r6,#0x30
        0x00001d6c:    00b8        ..      LSLS     r0,r7,#2
        0x00001d6e:    1900        ..      ADDS     r0,r0,r4
        0x00001d70:    9000        ..      STR      r0,[sp,#0]
        0x00001d72:    6186        .a      STR      r6,[r0,#0x18]
        0x00001d74:    e019        ..      B        0x1daa ; __printf + 126
        0x00001d76:    9802        ..      LDR      r0,[sp,#8]
        0x00001d78:    00ba        ..      LSLS     r2,r7,#2
        0x00001d7a:    1912        ..      ADDS     r2,r2,r4
        0x00001d7c:    c802        ..      LDM      r0!,{r1}
        0x00001d7e:    6191        .a      STR      r1,[r2,#0x18]
        0x00001d80:    9002        ..      STR      r0,[sp,#8]
        0x00001d82:    4620         F      MOV      r0,r4
        0x00001d84:    68e1        .h      LDR      r1,[r4,#0xc]
        0x00001d86:    4788        .G      BLX      r1
        0x00001d88:    2f01        ./      CMP      r7,#1
        0x00001d8a:    4606        .F      MOV      r6,r0
        0x00001d8c:    d117        ..      BNE      0x1dbe ; __printf + 146
        0x00001d8e:    69e0        .i      LDR      r0,[r4,#0x1c]
        0x00001d90:    2800        .(      CMP      r0,#0
        0x00001d92:    da1f        ..      BGE      0x1dd4 ; __printf + 168
        0x00001d94:    2020                MOVS     r0,#0x20
        0x00001d96:    4385        .C      BICS     r5,r5,r0
        0x00001d98:    e01c        ..      B        0x1dd4 ; __printf + 168
        0x00001d9a:    9800        ..      LDR      r0,[sp,#0]
        0x00001d9c:    210a        .!      MOVS     r1,#0xa
        0x00001d9e:    6980        .i      LDR      r0,[r0,#0x18]
        0x00001da0:    4348        HC      MULS     r0,r1,r0
        0x00001da2:    9900        ..      LDR      r1,[sp,#0]
        0x00001da4:    1980        ..      ADDS     r0,r0,r6
        0x00001da6:    3830        08      SUBS     r0,r0,#0x30
        0x00001da8:    6188        .a      STR      r0,[r1,#0x18]
        0x00001daa:    4620         F      MOV      r0,r4
        0x00001dac:    68e1        .h      LDR      r1,[r4,#0xc]
        0x00001dae:    4788        .G      BLX      r1
        0x00001db0:    4606        .F      MOV      r6,r0
        0x00001db2:    f001fe57    ..W.    BL       _is_digit ; 0x3a64
        0x00001db6:    2800        .(      CMP      r0,#0
        0x00001db8:    d1ef        ..      BNE      0x1d9a ; __printf + 110
        0x00001dba:    2f01        ./      CMP      r7,#1
        0x00001dbc:    d00a        ..      BEQ      0x1dd4 ; __printf + 168
        0x00001dbe:    2e2e        ..      CMP      r6,#0x2e
        0x00001dc0:    d108        ..      BNE      0x1dd4 ; __printf + 168
        0x00001dc2:    4620         F      MOV      r0,r4
        0x00001dc4:    68e1        .h      LDR      r1,[r4,#0xc]
        0x00001dc6:    4788        .G      BLX      r1
        0x00001dc8:    4606        .F      MOV      r6,r0
        0x00001dca:    2020                MOVS     r0,#0x20
        0x00001dcc:    4305        .C      ORRS     r5,r5,r0
        0x00001dce:    1c7f        ..      ADDS     r7,r7,#1
        0x00001dd0:    2f02        ./      CMP      r7,#2
        0x00001dd2:    dbc3        ..      BLT      0x1d5c ; __printf + 48
        0x00001dd4:    69a0        .i      LDR      r0,[r4,#0x18]
        0x00001dd6:    2800        .(      CMP      r0,#0
        0x00001dd8:    da03        ..      BGE      0x1de2 ; __printf + 182
        0x00001dda:    4240        @B      RSBS     r0,r0,#0
        0x00001ddc:    61a0        .a      STR      r0,[r4,#0x18]
        0x00001dde:    2001        .       MOVS     r0,#1
        0x00001de0:    4305        .C      ORRS     r5,r5,r0
        0x00001de2:    07e8        ..      LSLS     r0,r5,#31
        0x00001de4:    d001        ..      BEQ      0x1dea ; __printf + 190
        0x00001de6:    2010        .       MOVS     r0,#0x10
        0x00001de8:    4385        .C      BICS     r5,r5,r0
        0x00001dea:    2e00        ..      CMP      r6,#0
        0x00001dec:    d023        #.      BEQ      0x1e36 ; __printf + 266
        0x00001dee:    4630        0F      MOV      r0,r6
        0x00001df0:    3841        A8      SUBS     r0,r0,#0x41
        0x00001df2:    2819        .(      CMP      r0,#0x19
        0x00001df4:    d803        ..      BHI      0x1dfe ; __printf + 210
        0x00001df6:    2001        .       MOVS     r0,#1
        0x00001df8:    02c0        ..      LSLS     r0,r0,#11
        0x00001dfa:    4305        .C      ORRS     r5,r5,r0
        0x00001dfc:    3620         6      ADDS     r6,r6,#0x20
        0x00001dfe:    4620         F      MOV      r0,r4
        0x00001e00:    6025        %`      STR      r5,[r4,#0]
        0x00001e02:    4631        1F      MOV      r1,r6
        0x00001e04:    9a02        ..      LDR      r2,[sp,#8]
        0x00001e06:    4615        .F      MOV      r5,r2
        0x00001e08:    f7fef998    ....    BL       _printf_percent ; 0x13c
        0x00001e0c:    2800        .(      CMP      r0,#0
        0x00001e0e:    d00b        ..      BEQ      0x1e28 ; __printf + 252
        0x00001e10:    2801        .(      CMP      r0,#1
        0x00001e12:    d006        ..      BEQ      0x1e22 ; __printf + 246
        0x00001e14:    1ded        ..      ADDS     r5,r5,#7
        0x00001e16:    08e8        ..      LSRS     r0,r5,#3
        0x00001e18:    00c0        ..      LSLS     r0,r0,#3
        0x00001e1a:    3008        .0      ADDS     r0,r0,#8
        0x00001e1c:    9002        ..      STR      r0,[sp,#8]
        0x00001e1e:    e78a        ..      B        0x1d36 ; __printf + 10
        0x00001e20:    e009        ..      B        0x1e36 ; __printf + 266
        0x00001e22:    1d2d        -.      ADDS     r5,r5,#4
        0x00001e24:    9502        ..      STR      r5,[sp,#8]
        0x00001e26:    e786        ..      B        0x1d36 ; __printf + 10
        0x00001e28:    6862        bh      LDR      r2,[r4,#4]
        0x00001e2a:    4630        0F      MOV      r0,r6
        0x00001e2c:    68a1        .h      LDR      r1,[r4,#8]
        0x00001e2e:    4790        .G      BLX      r2
        0x00001e30:    6a20         j      LDR      r0,[r4,#0x20]
        0x00001e32:    1c40        @.      ADDS     r0,r0,#1
        0x00001e34:    e77e        ~.      B        0x1d34 ; __printf + 8
        0x00001e36:    6a20         j      LDR      r0,[r4,#0x20]
        0x00001e38:    bdfe        ..      POP      {r1-r7,pc}
    .text
    __aeabi_uidiv
    __aeabi_uidivmod
        0x00001e3a:    2200        ."      MOVS     r2,#0
        0x00001e3c:    0903        ..      LSRS     r3,r0,#4
        0x00001e3e:    428b        .B      CMP      r3,r1
        0x00001e40:    d32c        ,.      BCC      0x1e9c ; __aeabi_idiv + 78
        0x00001e42:    0a03        ..      LSRS     r3,r0,#8
        0x00001e44:    428b        .B      CMP      r3,r1
        0x00001e46:    d311        ..      BCC      0x1e6c ; __aeabi_idiv + 30
        0x00001e48:    2300        .#      MOVS     r3,#0
        0x00001e4a:    469c        .F      MOV      r12,r3
        0x00001e4c:    e04e        N.      B        0x1eec ; __aeabi_idiv + 158
    __aeabi_idiv
    __aeabi_idivmod
        0x00001e4e:    4603        .F      MOV      r3,r0
        0x00001e50:    430b        .C      ORRS     r3,r3,r1
        0x00001e52:    d43c        <.      BMI      0x1ece ; __aeabi_idiv + 128
        0x00001e54:    2200        ."      MOVS     r2,#0
        0x00001e56:    0843        C.      LSRS     r3,r0,#1
        0x00001e58:    428b        .B      CMP      r3,r1
        0x00001e5a:    d331        1.      BCC      0x1ec0 ; __aeabi_idiv + 114
        0x00001e5c:    0903        ..      LSRS     r3,r0,#4
        0x00001e5e:    428b        .B      CMP      r3,r1
        0x00001e60:    d31c        ..      BCC      0x1e9c ; __aeabi_idiv + 78
        0x00001e62:    0a03        ..      LSRS     r3,r0,#8
        0x00001e64:    428b        .B      CMP      r3,r1
        0x00001e66:    d301        ..      BCC      0x1e6c ; __aeabi_idiv + 30
        0x00001e68:    4694        .F      MOV      r12,r2
        0x00001e6a:    e03f        ?.      B        0x1eec ; __aeabi_idiv + 158
        0x00001e6c:    09c3        ..      LSRS     r3,r0,#7
        0x00001e6e:    428b        .B      CMP      r3,r1
        0x00001e70:    d301        ..      BCC      0x1e76 ; __aeabi_idiv + 40
        0x00001e72:    01cb        ..      LSLS     r3,r1,#7
        0x00001e74:    1ac0        ..      SUBS     r0,r0,r3
        0x00001e76:    4152        RA      ADCS     r2,r2,r2
        0x00001e78:    0983        ..      LSRS     r3,r0,#6
        0x00001e7a:    428b        .B      CMP      r3,r1
        0x00001e7c:    d301        ..      BCC      0x1e82 ; __aeabi_idiv + 52
        0x00001e7e:    018b        ..      LSLS     r3,r1,#6
        0x00001e80:    1ac0        ..      SUBS     r0,r0,r3
        0x00001e82:    4152        RA      ADCS     r2,r2,r2
        0x00001e84:    0943        C.      LSRS     r3,r0,#5
        0x00001e86:    428b        .B      CMP      r3,r1
        0x00001e88:    d301        ..      BCC      0x1e8e ; __aeabi_idiv + 64
        0x00001e8a:    014b        K.      LSLS     r3,r1,#5
        0x00001e8c:    1ac0        ..      SUBS     r0,r0,r3
        0x00001e8e:    4152        RA      ADCS     r2,r2,r2
        0x00001e90:    0903        ..      LSRS     r3,r0,#4
        0x00001e92:    428b        .B      CMP      r3,r1
        0x00001e94:    d301        ..      BCC      0x1e9a ; __aeabi_idiv + 76
        0x00001e96:    010b        ..      LSLS     r3,r1,#4
        0x00001e98:    1ac0        ..      SUBS     r0,r0,r3
        0x00001e9a:    4152        RA      ADCS     r2,r2,r2
        0x00001e9c:    08c3        ..      LSRS     r3,r0,#3
        0x00001e9e:    428b        .B      CMP      r3,r1
        0x00001ea0:    d301        ..      BCC      0x1ea6 ; __aeabi_idiv + 88
        0x00001ea2:    00cb        ..      LSLS     r3,r1,#3
        0x00001ea4:    1ac0        ..      SUBS     r0,r0,r3
        0x00001ea6:    4152        RA      ADCS     r2,r2,r2
        0x00001ea8:    0883        ..      LSRS     r3,r0,#2
        0x00001eaa:    428b        .B      CMP      r3,r1
        0x00001eac:    d301        ..      BCC      0x1eb2 ; __aeabi_idiv + 100
        0x00001eae:    008b        ..      LSLS     r3,r1,#2
        0x00001eb0:    1ac0        ..      SUBS     r0,r0,r3
        0x00001eb2:    4152        RA      ADCS     r2,r2,r2
        0x00001eb4:    0843        C.      LSRS     r3,r0,#1
        0x00001eb6:    428b        .B      CMP      r3,r1
        0x00001eb8:    d301        ..      BCC      0x1ebe ; __aeabi_idiv + 112
        0x00001eba:    004b        K.      LSLS     r3,r1,#1
        0x00001ebc:    1ac0        ..      SUBS     r0,r0,r3
        0x00001ebe:    4152        RA      ADCS     r2,r2,r2
        0x00001ec0:    1a41        A.      SUBS     r1,r0,r1
        0x00001ec2:    d200        ..      BCS      0x1ec6 ; __aeabi_idiv + 120
        0x00001ec4:    4601        .F      MOV      r1,r0
        0x00001ec6:    4152        RA      ADCS     r2,r2,r2
        0x00001ec8:    4610        .F      MOV      r0,r2
        0x00001eca:    4770        pG      BX       lr
        0x00001ecc:    e05d        ].      B        0x1f8a ; __aeabi_idiv + 316
        0x00001ece:    0fca        ..      LSRS     r2,r1,#31
        0x00001ed0:    d000        ..      BEQ      0x1ed4 ; __aeabi_idiv + 134
        0x00001ed2:    4249        IB      RSBS     r1,r1,#0
        0x00001ed4:    1003        ..      ASRS     r3,r0,#32
        0x00001ed6:    d300        ..      BCC      0x1eda ; __aeabi_idiv + 140
        0x00001ed8:    4240        @B      RSBS     r0,r0,#0
        0x00001eda:    4053        S@      EORS     r3,r3,r2
        0x00001edc:    2200        ."      MOVS     r2,#0
        0x00001ede:    469c        .F      MOV      r12,r3
        0x00001ee0:    0903        ..      LSRS     r3,r0,#4
        0x00001ee2:    428b        .B      CMP      r3,r1
        0x00001ee4:    d32d        -.      BCC      0x1f42 ; __aeabi_idiv + 244
        0x00001ee6:    0a03        ..      LSRS     r3,r0,#8
        0x00001ee8:    428b        .B      CMP      r3,r1
        0x00001eea:    d312        ..      BCC      0x1f12 ; __aeabi_idiv + 196
        0x00001eec:    22fc        ."      MOVS     r2,#0xfc
        0x00001eee:    0189        ..      LSLS     r1,r1,#6
        0x00001ef0:    ba12        ..      REV      r2,r2
        0x00001ef2:    0a03        ..      LSRS     r3,r0,#8
        0x00001ef4:    428b        .B      CMP      r3,r1
        0x00001ef6:    d30c        ..      BCC      0x1f12 ; __aeabi_idiv + 196
        0x00001ef8:    0189        ..      LSLS     r1,r1,#6
        0x00001efa:    1192        ..      ASRS     r2,r2,#6
        0x00001efc:    428b        .B      CMP      r3,r1
        0x00001efe:    d308        ..      BCC      0x1f12 ; __aeabi_idiv + 196
        0x00001f00:    0189        ..      LSLS     r1,r1,#6
        0x00001f02:    1192        ..      ASRS     r2,r2,#6
        0x00001f04:    428b        .B      CMP      r3,r1
        0x00001f06:    d304        ..      BCC      0x1f12 ; __aeabi_idiv + 196
        0x00001f08:    0189        ..      LSLS     r1,r1,#6
        0x00001f0a:    d03a        :.      BEQ      0x1f82 ; __aeabi_idiv + 308
        0x00001f0c:    1192        ..      ASRS     r2,r2,#6
        0x00001f0e:    e000        ..      B        0x1f12 ; __aeabi_idiv + 196
        0x00001f10:    0989        ..      LSRS     r1,r1,#6
        0x00001f12:    09c3        ..      LSRS     r3,r0,#7
        0x00001f14:    428b        .B      CMP      r3,r1
        0x00001f16:    d301        ..      BCC      0x1f1c ; __aeabi_idiv + 206
        0x00001f18:    01cb        ..      LSLS     r3,r1,#7
        0x00001f1a:    1ac0        ..      SUBS     r0,r0,r3
        0x00001f1c:    4152        RA      ADCS     r2,r2,r2
        0x00001f1e:    0983        ..      LSRS     r3,r0,#6
        0x00001f20:    428b        .B      CMP      r3,r1
        0x00001f22:    d301        ..      BCC      0x1f28 ; __aeabi_idiv + 218
        0x00001f24:    018b        ..      LSLS     r3,r1,#6
        0x00001f26:    1ac0        ..      SUBS     r0,r0,r3
        0x00001f28:    4152        RA      ADCS     r2,r2,r2
        0x00001f2a:    0943        C.      LSRS     r3,r0,#5
        0x00001f2c:    428b        .B      CMP      r3,r1
        0x00001f2e:    d301        ..      BCC      0x1f34 ; __aeabi_idiv + 230
        0x00001f30:    014b        K.      LSLS     r3,r1,#5
        0x00001f32:    1ac0        ..      SUBS     r0,r0,r3
        0x00001f34:    4152        RA      ADCS     r2,r2,r2
        0x00001f36:    0903        ..      LSRS     r3,r0,#4
        0x00001f38:    428b        .B      CMP      r3,r1
        0x00001f3a:    d301        ..      BCC      0x1f40 ; __aeabi_idiv + 242
        0x00001f3c:    010b        ..      LSLS     r3,r1,#4
        0x00001f3e:    1ac0        ..      SUBS     r0,r0,r3
        0x00001f40:    4152        RA      ADCS     r2,r2,r2
        0x00001f42:    08c3        ..      LSRS     r3,r0,#3
        0x00001f44:    428b        .B      CMP      r3,r1
        0x00001f46:    d301        ..      BCC      0x1f4c ; __aeabi_idiv + 254
        0x00001f48:    00cb        ..      LSLS     r3,r1,#3
        0x00001f4a:    1ac0        ..      SUBS     r0,r0,r3
        0x00001f4c:    4152        RA      ADCS     r2,r2,r2
        0x00001f4e:    0883        ..      LSRS     r3,r0,#2
        0x00001f50:    428b        .B      CMP      r3,r1
        0x00001f52:    d301        ..      BCC      0x1f58 ; __aeabi_idiv + 266
        0x00001f54:    008b        ..      LSLS     r3,r1,#2
        0x00001f56:    1ac0        ..      SUBS     r0,r0,r3
        0x00001f58:    4152        RA      ADCS     r2,r2,r2
        0x00001f5a:    d2d9        ..      BCS      0x1f10 ; __aeabi_idiv + 194
        0x00001f5c:    0843        C.      LSRS     r3,r0,#1
        0x00001f5e:    428b        .B      CMP      r3,r1
        0x00001f60:    d301        ..      BCC      0x1f66 ; __aeabi_idiv + 280
        0x00001f62:    004b        K.      LSLS     r3,r1,#1
        0x00001f64:    1ac0        ..      SUBS     r0,r0,r3
        0x00001f66:    4152        RA      ADCS     r2,r2,r2
        0x00001f68:    1a41        A.      SUBS     r1,r0,r1
        0x00001f6a:    d200        ..      BCS      0x1f6e ; __aeabi_idiv + 288
        0x00001f6c:    4601        .F      MOV      r1,r0
        0x00001f6e:    4663        cF      MOV      r3,r12
        0x00001f70:    4152        RA      ADCS     r2,r2,r2
        0x00001f72:    105b        [.      ASRS     r3,r3,#1
        0x00001f74:    4610        .F      MOV      r0,r2
        0x00001f76:    d301        ..      BCC      0x1f7c ; __aeabi_idiv + 302
        0x00001f78:    4240        @B      RSBS     r0,r0,#0
        0x00001f7a:    2b00        .+      CMP      r3,#0
        0x00001f7c:    d500        ..      BPL      0x1f80 ; __aeabi_idiv + 306
        0x00001f7e:    4249        IB      RSBS     r1,r1,#0
        0x00001f80:    4770        pG      BX       lr
        0x00001f82:    4663        cF      MOV      r3,r12
        0x00001f84:    105b        [.      ASRS     r3,r3,#1
        0x00001f86:    d300        ..      BCC      0x1f8a ; __aeabi_idiv + 316
        0x00001f88:    4240        @B      RSBS     r0,r0,#0
        0x00001f8a:    b501        ..      PUSH     {r0,lr}
        0x00001f8c:    2000        .       MOVS     r0,#0
        0x00001f8e:    46c0        .F      MOV      r8,r8
        0x00001f90:    46c0        .F      MOV      r8,r8
        0x00001f92:    bd02        ..      POP      {r1,pc}
    .text
    __use_two_region_memory
        0x00001f94:    4770        pG      BX       lr
    __rt_heap_escrow$2region
        0x00001f96:    4770        pG      BX       lr
    __rt_heap_expand$2region
        0x00001f98:    4770        pG      BX       lr
        0x00001f9a:    0000        ..      MOVS     r0,r0
    .text
    __aeabi_d2f
    _d2f
        0x00001f9c:    4602        .F      MOV      r2,r0
        0x00001f9e:    0fc8        ..      LSRS     r0,r1,#31
        0x00001fa0:    07c0        ..      LSLS     r0,r0,#31
        0x00001fa2:    4381        .C      BICS     r1,r1,r0
        0x00001fa4:    004b        K.      LSLS     r3,r1,#1
        0x00001fa6:    b530        0.      PUSH     {r4,r5,lr}
        0x00001fa8:    404b        K@      EORS     r3,r3,r1
        0x00001faa:    005b        [.      LSLS     r3,r3,#1
        0x00001fac:    0d9b        ..      LSRS     r3,r3,#22
        0x00001fae:    d020         .      BEQ      0x1ff2 ; __aeabi_d2f + 86
        0x00001fb0:    2319        .#      MOVS     r3,#0x19
        0x00001fb2:    06db        ..      LSLS     r3,r3,#27
        0x00001fb4:    18c9        ..      ADDS     r1,r1,r3
        0x00001fb6:    2301        .#      MOVS     r3,#1
        0x00001fb8:    051b        ..      LSLS     r3,r3,#20
        0x00001fba:    4299        .B      CMP      r1,r3
        0x00001fbc:    db20         .      BLT      0x2000 ; __aeabi_d2f + 100
        0x00001fbe:    2403        .$      MOVS     r4,#3
        0x00001fc0:    07a4        ..      LSLS     r4,r4,#30
        0x00001fc2:    2504        .%      MOVS     r5,#4
        0x00001fc4:    4613        .F      MOV      r3,r2
        0x00001fc6:    40ab        .@      LSLS     r3,r3,r5
        0x00001fc8:    d30b        ..      BCC      0x1fe2 ; __aeabi_d2f + 70
        0x00001fca:    2b00        .+      CMP      r3,#0
        0x00001fcc:    d104        ..      BNE      0x1fd8 ; __aeabi_d2f + 60
        0x00001fce:    06eb        ..      LSLS     r3,r5,#27
        0x00001fd0:    4013        .@      ANDS     r3,r3,r2
        0x00001fd2:    009b        ..      LSLS     r3,r3,#2
        0x00001fd4:    191b        ..      ADDS     r3,r3,r4
        0x00001fd6:    d404        ..      BMI      0x1fe2 ; __aeabi_d2f + 70
        0x00001fd8:    2401        .$      MOVS     r4,#1
        0x00001fda:    0764        d.      LSLS     r4,r4,#29
        0x00001fdc:    2300        .#      MOVS     r3,#0
        0x00001fde:    1912        ..      ADDS     r2,r2,r4
        0x00001fe0:    4159        YA      ADCS     r1,r1,r3
        0x00001fe2:    23ff        .#      MOVS     r3,#0xff
        0x00001fe4:    051b        ..      LSLS     r3,r3,#20
        0x00001fe6:    4299        .B      CMP      r1,r3
        0x00001fe8:    d20b        ..      BCS      0x2002 ; __aeabi_d2f + 102
        0x00001fea:    00c9        ..      LSLS     r1,r1,#3
        0x00001fec:    4301        .C      ORRS     r1,r1,r0
        0x00001fee:    0f50        P.      LSRS     r0,r2,#29
        0x00001ff0:    e009        ..      B        0x2006 ; __aeabi_d2f + 106
        0x00001ff2:    02cb        ..      LSLS     r3,r1,#11
        0x00001ff4:    d504        ..      BPL      0x2000 ; __aeabi_d2f + 100
        0x00001ff6:    4301        .C      ORRS     r1,r1,r0
        0x00001ff8:    0308        ..      LSLS     r0,r1,#12
        0x00001ffa:    4302        .C      ORRS     r2,r2,r0
        0x00001ffc:    d005        ..      BEQ      0x200a ; __aeabi_d2f + 110
        0x00001ffe:    4805        .H      LDR      r0,[pc,#20] ; [0x2014] = 0x7fc00000
        0x00002000:    bd30        0.      POP      {r4,r5,pc}
        0x00002002:    21ff        .!      MOVS     r1,#0xff
        0x00002004:    05c9        ..      LSLS     r1,r1,#23
        0x00002006:    4308        .C      ORRS     r0,r0,r1
        0x00002008:    bd30        0.      POP      {r4,r5,pc}
        0x0000200a:    4608        .F      MOV      r0,r1
        0x0000200c:    2107        .!      MOVS     r1,#7
        0x0000200e:    0509        ..      LSLS     r1,r1,#20
        0x00002010:    4388        .C      BICS     r0,r0,r1
        0x00002012:    bd30        0.      POP      {r4,r5,pc}
    $d
        0x00002014:    7fc00000    ....    DCD    2143289344
    $t
    .text
    _dadd1
        0x00002018:    b5f0        ..      PUSH     {r4-r7,lr}
        0x0000201a:    460c        .F      MOV      r4,r1
        0x0000201c:    1a87        ..      SUBS     r7,r0,r2
        0x0000201e:    419c        .A      SBCS     r4,r4,r3
        0x00002020:    460d        .F      MOV      r5,r1
        0x00002022:    1a86        ..      SUBS     r6,r0,r2
        0x00002024:    419d        .A      SBCS     r5,r5,r3
        0x00002026:    d203        ..      BCS      0x2030 ; _dadd1 + 24
        0x00002028:    1bc0        ..      SUBS     r0,r0,r7
        0x0000202a:    41a1        .A      SBCS     r1,r1,r4
        0x0000202c:    19d2        ..      ADDS     r2,r2,r7
        0x0000202e:    4163        cA      ADCS     r3,r3,r4
        0x00002030:    0d0d        ..      LSRS     r5,r1,#20
        0x00002032:    0d1f        ..      LSRS     r7,r3,#20
        0x00002034:    4ec6        .N      LDR      r6,[pc,#792] ; [0x2350] = 0x7ff
        0x00002036:    1bec        ..      SUBS     r4,r5,r7
        0x00002038:    43ae        .C      BICS     r6,r6,r5
        0x0000203a:    d05b        [.      BEQ      0x20f4 ; _dadd1 + 220
        0x0000203c:    057f        ..      LSLS     r7,r7,#21
        0x0000203e:    0d7f        ..      LSRS     r7,r7,#21
        0x00002040:    2600        .&      MOVS     r6,#0
        0x00002042:    2f00        ./      CMP      r7,#0
        0x00002044:    d050        P.      BEQ      0x20e8 ; _dadd1 + 208
        0x00002046:    052d        -.      LSLS     r5,r5,#20
        0x00002048:    46ac        .F      MOV      r12,r5
        0x0000204a:    43a9        .C      BICS     r1,r1,r5
        0x0000204c:    02dd        ..      LSLS     r5,r3,#11
        0x0000204e:    2301        .#      MOVS     r3,#1
        0x00002050:    0aed        ..      LSRS     r5,r5,#11
        0x00002052:    051b        ..      LSLS     r3,r3,#20
        0x00002054:    431d        .C      ORRS     r5,r5,r3
        0x00002056:    2320         #      MOVS     r3,#0x20
        0x00002058:    1b1b        ..      SUBS     r3,r3,r4
        0x0000205a:    d423        #.      BMI      0x20a4 ; _dadd1 + 140
        0x0000205c:    4617        .F      MOV      r7,r2
        0x0000205e:    40e7        .@      LSRS     r7,r7,r4
        0x00002060:    1838        8.      ADDS     r0,r7,r0
        0x00002062:    4171        qA      ADCS     r1,r1,r6
        0x00002064:    462f        /F      MOV      r7,r5
        0x00002066:    40e7        .@      LSRS     r7,r7,r4
        0x00002068:    19cc        ..      ADDS     r4,r1,r7
        0x0000206a:    409d        .@      LSLS     r5,r5,r3
        0x0000206c:    1828        (.      ADDS     r0,r5,r0
        0x0000206e:    4631        1F      MOV      r1,r6
        0x00002070:    4161        aA      ADCS     r1,r1,r4
        0x00002072:    0d0c        ..      LSRS     r4,r1,#20
        0x00002074:    d126        &.      BNE      0x20c4 ; _dadd1 + 172
        0x00002076:    4461        aD      ADD      r1,r1,r12
        0x00002078:    409a        .@      LSLS     r2,r2,r3
        0x0000207a:    d512        ..      BPL      0x20a2 ; _dadd1 + 138
        0x0000207c:    2300        .#      MOVS     r3,#0
        0x0000207e:    1c40        @.      ADDS     r0,r0,#1
        0x00002080:    4159        YA      ADCS     r1,r1,r3
        0x00002082:    0052        R.      LSLS     r2,r2,#1
        0x00002084:    d10d        ..      BNE      0x20a2 ; _dadd1 + 138
        0x00002086:    0840        @.      LSRS     r0,r0,#1
        0x00002088:    0040        @.      LSLS     r0,r0,#1
        0x0000208a:    4ab2        .J      LDR      r2,[pc,#712] ; [0x2354] = 0xffe00000
        0x0000208c:    004b        K.      LSLS     r3,r1,#1
        0x0000208e:    4293        .B      CMP      r3,r2
        0x00002090:    d307        ..      BCC      0x20a2 ; _dadd1 + 138
        0x00002092:    2005        .       MOVS     r0,#5
        0x00002094:    0740        @.      LSLS     r0,r0,#29
        0x00002096:    1808        ..      ADDS     r0,r1,r0
        0x00002098:    d501        ..      BPL      0x209e ; _dadd1 + 134
        0x0000209a:    1051        Q.      ASRS     r1,r2,#1
        0x0000209c:    e000        ..      B        0x20a0 ; _dadd1 + 136
        0x0000209e:    49ae        .I      LDR      r1,[pc,#696] ; [0x2358] = 0x7ff00000
        0x000020a0:    4630        0F      MOV      r0,r6
        0x000020a2:    bdf0        ..      POP      {r4-r7,pc}
        0x000020a4:    006b        k.      LSLS     r3,r5,#1
        0x000020a6:    2a00        .*      CMP      r2,#0
        0x000020a8:    d000        ..      BEQ      0x20ac ; _dadd1 + 148
        0x000020aa:    2201        ."      MOVS     r2,#1
        0x000020ac:    189a        ..      ADDS     r2,r3,r2
        0x000020ae:    3c20         <      SUBS     r4,r4,#0x20
        0x000020b0:    231f        .#      MOVS     r3,#0x1f
        0x000020b2:    1b1b        ..      SUBS     r3,r3,r4
        0x000020b4:    d501        ..      BPL      0x20ba ; _dadd1 + 162
        0x000020b6:    2300        .#      MOVS     r3,#0
        0x000020b8:    e002        ..      B        0x20c0 ; _dadd1 + 168
        0x000020ba:    40e5        .@      LSRS     r5,r5,r4
        0x000020bc:    1828        (.      ADDS     r0,r5,r0
        0x000020be:    4171        qA      ADCS     r1,r1,r6
        0x000020c0:    0d0c        ..      LSRS     r4,r1,#20
        0x000020c2:    d0d8        ..      BEQ      0x2076 ; _dadd1 + 94
        0x000020c4:    2401        .$      MOVS     r4,#1
        0x000020c6:    0524        $.      LSLS     r4,r4,#20
        0x000020c8:    1909        ..      ADDS     r1,r1,r4
        0x000020ca:    07c4        ..      LSLS     r4,r0,#31
        0x000020cc:    07cd        ..      LSLS     r5,r1,#31
        0x000020ce:    0840        @.      LSRS     r0,r0,#1
        0x000020d0:    0849        I.      LSRS     r1,r1,#1
        0x000020d2:    0fe4        ..      LSRS     r4,r4,#31
        0x000020d4:    4328        (C      ORRS     r0,r0,r5
        0x000020d6:    4461        aD      ADD      r1,r1,r12
        0x000020d8:    2c00        .,      CMP      r4,#0
        0x000020da:    d0d6        ..      BEQ      0x208a ; _dadd1 + 114
        0x000020dc:    2400        .$      MOVS     r4,#0
        0x000020de:    1c40        @.      ADDS     r0,r0,#1
        0x000020e0:    4161        aA      ADCS     r1,r1,r4
        0x000020e2:    409a        .@      LSLS     r2,r2,r3
        0x000020e4:    d1d1        ..      BNE      0x208a ; _dadd1 + 114
        0x000020e6:    e7ce        ..      B        0x2086 ; _dadd1 + 110
        0x000020e8:    056a        j.      LSLS     r2,r5,#21
        0x000020ea:    0d52        R.      LSRS     r2,r2,#21
        0x000020ec:    d1d9        ..      BNE      0x20a2 ; _dadd1 + 138
        0x000020ee:    0fc9        ..      LSRS     r1,r1,#31
        0x000020f0:    07c9        ..      LSLS     r1,r1,#31
        0x000020f2:    e7d5        ..      B        0x20a0 ; _dadd1 + 136
        0x000020f4:    4d97        .M      LDR      r5,[pc,#604] ; [0x2354] = 0xffe00000
        0x000020f6:    004e        N.      LSLS     r6,r1,#1
        0x000020f8:    2800        .(      CMP      r0,#0
        0x000020fa:    d001        ..      BEQ      0x2100 ; _dadd1 + 232
        0x000020fc:    2401        .$      MOVS     r4,#1
        0x000020fe:    e000        ..      B        0x2102 ; _dadd1 + 234
        0x00002100:    2400        .$      MOVS     r4,#0
        0x00002102:    1934        4.      ADDS     r4,r6,r4
        0x00002104:    005f        _.      LSLS     r7,r3,#1
        0x00002106:    2a00        .*      CMP      r2,#0
        0x00002108:    d001        ..      BEQ      0x210e ; _dadd1 + 246
        0x0000210a:    2601        .&      MOVS     r6,#1
        0x0000210c:    e000        ..      B        0x2110 ; _dadd1 + 248
        0x0000210e:    2600        .&      MOVS     r6,#0
        0x00002110:    19be        ..      ADDS     r6,r7,r6
        0x00002112:    4f92        .O      LDR      r7,[pc,#584] ; [0x235c] = 0x7ff80000
        0x00002114:    42ac        .B      CMP      r4,r5
        0x00002116:    d80b        ..      BHI      0x2130 ; _dadd1 + 280
        0x00002118:    42ae        .B      CMP      r6,r5
        0x0000211a:    d809        ..      BHI      0x2130 ; _dadd1 + 280
        0x0000211c:    42b4        .B      CMP      r4,r6
        0x0000211e:    d005        ..      BEQ      0x212c ; _dadd1 + 276
        0x00002120:    00bd        ..      LSLS     r5,r7,#2
        0x00002122:    42ac        .B      CMP      r4,r5
        0x00002124:    d0bd        ..      BEQ      0x20a2 ; _dadd1 + 138
        0x00002126:    4610        .F      MOV      r0,r2
        0x00002128:    4619        .F      MOV      r1,r3
        0x0000212a:    bdf0        ..      POP      {r4-r7,pc}
        0x0000212c:    4299        .B      CMP      r1,r3
        0x0000212e:    d0fc        ..      BEQ      0x212a ; _dadd1 + 274
        0x00002130:    2000        .       MOVS     r0,#0
        0x00002132:    4639        9F      MOV      r1,r7
        0x00002134:    bdf0        ..      POP      {r4-r7,pc}
    _dsub1
        0x00002136:    b5f0        ..      PUSH     {r4-r7,lr}
        0x00002138:    b41f        ..      PUSH     {r0-r4}
        0x0000213a:    460c        .F      MOV      r4,r1
        0x0000213c:    460f        .F      MOV      r7,r1
        0x0000213e:    1a81        ..      SUBS     r1,r0,r2
        0x00002140:    419f        .A      SBCS     r7,r7,r3
        0x00002142:    4625        %F      MOV      r5,r4
        0x00002144:    1a86        ..      SUBS     r6,r0,r2
        0x00002146:    419d        .A      SBCS     r5,r5,r3
        0x00002148:    d206        ..      BCS      0x2158 ; _dsub1 + 34
        0x0000214a:    2501        .%      MOVS     r5,#1
        0x0000214c:    07ed        ..      LSLS     r5,r5,#31
        0x0000214e:    406f        o@      EORS     r7,r7,r5
        0x00002150:    1a40        @.      SUBS     r0,r0,r1
        0x00002152:    41bc        .A      SBCS     r4,r4,r7
        0x00002154:    1852        R.      ADDS     r2,r2,r1
        0x00002156:    417b        {A      ADCS     r3,r3,r7
        0x00002158:    0d21        !.      LSRS     r1,r4,#20
        0x0000215a:    0d1e        ..      LSRS     r6,r3,#20
        0x0000215c:    1b8d        ..      SUBS     r5,r1,r6
        0x0000215e:    46ac        .F      MOV      r12,r5
        0x00002160:    4d7b        {M      LDR      r5,[pc,#492] ; [0x2350] = 0x7ff
        0x00002162:    438d        .C      BICS     r5,r5,r1
        0x00002164:    d07e        ~.      BEQ      0x2264 ; _dsub1 + 302
        0x00002166:    0575        u.      LSLS     r5,r6,#21
        0x00002168:    0d6d        m.      LSRS     r5,r5,#21
        0x0000216a:    d07c        |.      BEQ      0x2266 ; _dsub1 + 304
        0x0000216c:    050d        ..      LSLS     r5,r1,#20
        0x0000216e:    46ae        .F      MOV      lr,r5
        0x00002170:    43ac        .C      BICS     r4,r4,r5
        0x00002172:    031b        ..      LSLS     r3,r3,#12
        0x00002174:    0b1b        ..      LSRS     r3,r3,#12
        0x00002176:    4d7a        zM      LDR      r5,[pc,#488] ; [0x2360] = 0xfff00000
        0x00002178:    4252        RB      RSBS     r2,r2,#0
        0x0000217a:    419d        .A      SBCS     r5,r5,r3
        0x0000217c:    2320         #      MOVS     r3,#0x20
        0x0000217e:    4666        fF      MOV      r6,r12
        0x00002180:    1b9b        ..      SUBS     r3,r3,r6
        0x00002182:    d314        ..      BCC      0x21ae ; _dsub1 + 120
        0x00002184:    4617        .F      MOV      r7,r2
        0x00002186:    40f7        .@      LSRS     r7,r7,r6
        0x00002188:    1838        8.      ADDS     r0,r7,r0
        0x0000218a:    2600        .&      MOVS     r6,#0
        0x0000218c:    9000        ..      STR      r0,[sp,#0]
        0x0000218e:    4174        tA      ADCS     r4,r4,r6
        0x00002190:    4660        `F      MOV      r0,r12
        0x00002192:    462f        /F      MOV      r7,r5
        0x00002194:    4107        .A      ASRS     r7,r7,r0
        0x00002196:    19e4        ..      ADDS     r4,r4,r7
        0x00002198:    9800        ..      LDR      r0,[sp,#0]
        0x0000219a:    409d        .@      LSLS     r5,r5,r3
        0x0000219c:    1828        (.      ADDS     r0,r5,r0
        0x0000219e:    4166        fA      ADCS     r6,r6,r4
        0x000021a0:    d416        ..      BMI      0x21d0 ; _dsub1 + 154
        0x000021a2:    4671        qF      MOV      r1,lr
        0x000021a4:    1871        q.      ADDS     r1,r6,r1
        0x000021a6:    409a        .@      LSLS     r2,r2,r3
        0x000021a8:    d525        %.      BPL      0x21f6 ; _dsub1 + 192
        0x000021aa:    2301        .#      MOVS     r3,#1
        0x000021ac:    e020         .      B        0x21f0 ; _dsub1 + 186
        0x000021ae:    1893        ..      ADDS     r3,r2,r2
        0x000021b0:    462a        *F      MOV      r2,r5
        0x000021b2:    416a        jA      ADCS     r2,r2,r5
        0x000021b4:    0052        R.      LSLS     r2,r2,#1
        0x000021b6:    2b00        .+      CMP      r3,#0
        0x000021b8:    d000        ..      BEQ      0x21bc ; _dsub1 + 134
        0x000021ba:    1c52        R.      ADDS     r2,r2,#1
        0x000021bc:    3e20         >      SUBS     r6,r6,#0x20
        0x000021be:    231e        .#      MOVS     r3,#0x1e
        0x000021c0:    1b9b        ..      SUBS     r3,r3,r6
        0x000021c2:    2b00        .+      CMP      r3,#0
        0x000021c4:    dd61        a.      BLE      0x228a ; _dsub1 + 340
        0x000021c6:    4135        5A      ASRS     r5,r5,r6
        0x000021c8:    17ee        ..      ASRS     r6,r5,#31
        0x000021ca:    1828        (.      ADDS     r0,r5,r0
        0x000021cc:    4166        fA      ADCS     r6,r6,r4
        0x000021ce:    d5e8        ..      BPL      0x21a2 ; _dsub1 + 108
        0x000021d0:    1800        ..      ADDS     r0,r0,r0
        0x000021d2:    4176        vA      ADCS     r6,r6,r6
        0x000021d4:    1c5b        [.      ADDS     r3,r3,#1
        0x000021d6:    409a        .@      LSLS     r2,r2,r3
        0x000021d8:    d300        ..      BCC      0x21dc ; _dsub1 + 166
        0x000021da:    1c40        @.      ADDS     r0,r0,#1
        0x000021dc:    054b        K.      LSLS     r3,r1,#21
        0x000021de:    18f3        ..      ADDS     r3,r6,r3
        0x000021e0:    2415        .$      MOVS     r4,#0x15
        0x000021e2:    40e3        .@      LSRS     r3,r3,r4
        0x000021e4:    d310        ..      BCC      0x2208 ; _dsub1 + 210
        0x000021e6:    2b00        .+      CMP      r3,#0
        0x000021e8:    d052        R.      BEQ      0x2290 ; _dsub1 + 346
        0x000021ea:    4671        qF      MOV      r1,lr
        0x000021ec:    1871        q.      ADDS     r1,r6,r1
        0x000021ee:    0fd3        ..      LSRS     r3,r2,#31
        0x000021f0:    18c0        ..      ADDS     r0,r0,r3
        0x000021f2:    d302        ..      BCC      0x21fa ; _dsub1 + 196
        0x000021f4:    1c49        I.      ADDS     r1,r1,#1
        0x000021f6:    b005        ..      ADD      sp,sp,#0x14
        0x000021f8:    bdf0        ..      POP      {r4-r7,pc}
        0x000021fa:    2301        .#      MOVS     r3,#1
        0x000021fc:    07db        ..      LSLS     r3,r3,#31
        0x000021fe:    429a        .B      CMP      r2,r3
        0x00002200:    d1f9        ..      BNE      0x21f6 ; _dsub1 + 192
        0x00002202:    0840        @.      LSRS     r0,r0,#1
        0x00002204:    0040        @.      LSLS     r0,r0,#1
        0x00002206:    e7f6        ..      B        0x21f6 ; _dsub1 + 192
        0x00002208:    2201        ."      MOVS     r2,#1
        0x0000220a:    0552        R.      LSLS     r2,r2,#21
        0x0000220c:    18b2        ..      ADDS     r2,r6,r2
        0x0000220e:    d101        ..      BNE      0x2214 ; _dsub1 + 222
        0x00002210:    2800        .(      CMP      r0,#0
        0x00002212:    d053        S.      BEQ      0x22bc ; _dsub1 + 390
        0x00002214:    2301        .#      MOVS     r3,#1
        0x00002216:    0acc        ..      LSRS     r4,r1,#11
        0x00002218:    02db        ..      LSLS     r3,r3,#11
        0x0000221a:    4399        .C      BICS     r1,r1,r3
        0x0000221c:    1e89        ..      SUBS     r1,r1,#2
        0x0000221e:    2a00        .*      CMP      r2,#0
        0x00002220:    d108        ..      BNE      0x2234 ; _dsub1 + 254
        0x00002222:    0c02        ..      LSRS     r2,r0,#16
        0x00002224:    d003        ..      BEQ      0x222e ; _dsub1 + 248
        0x00002226:    0c02        ..      LSRS     r2,r0,#16
        0x00002228:    0400        ..      LSLS     r0,r0,#16
        0x0000222a:    3910        .9      SUBS     r1,r1,#0x10
        0x0000222c:    e002        ..      B        0x2234 ; _dsub1 + 254
        0x0000222e:    4602        .F      MOV      r2,r0
        0x00002230:    2000        .       MOVS     r0,#0
        0x00002232:    3920         9      SUBS     r1,r1,#0x20
        0x00002234:    2300        .#      MOVS     r3,#0
        0x00002236:    0b55        U.      LSRS     r5,r2,#13
        0x00002238:    d105        ..      BNE      0x2246 ; _dsub1 + 272
        0x0000223a:    0212        ..      LSLS     r2,r2,#8
        0x0000223c:    2308        .#      MOVS     r3,#8
        0x0000223e:    0b55        U.      LSRS     r5,r2,#13
        0x00002240:    d101        ..      BNE      0x2246 ; _dsub1 + 272
        0x00002242:    0152        R.      LSLS     r2,r2,#5
        0x00002244:    230d        .#      MOVS     r3,#0xd
        0x00002246:    0c55        U.      LSRS     r5,r2,#17
        0x00002248:    d101        ..      BNE      0x224e ; _dsub1 + 280
        0x0000224a:    0112        ..      LSLS     r2,r2,#4
        0x0000224c:    1d1b        ..      ADDS     r3,r3,#4
        0x0000224e:    0cd5        ..      LSRS     r5,r2,#19
        0x00002250:    d101        ..      BNE      0x2256 ; _dsub1 + 288
        0x00002252:    0092        ..      LSLS     r2,r2,#2
        0x00002254:    1c9b        ..      ADDS     r3,r3,#2
        0x00002256:    0d15        ..      LSRS     r5,r2,#20
        0x00002258:    d101        ..      BNE      0x225e ; _dsub1 + 296
        0x0000225a:    0052        R.      LSLS     r2,r2,#1
        0x0000225c:    1c5b        [.      ADDS     r3,r3,#1
        0x0000225e:    2520         %      MOVS     r5,#0x20
        0x00002260:    1aee        ..      SUBS     r6,r5,r3
        0x00002262:    e001        ..      B        0x2268 ; _dsub1 + 306
        0x00002264:    e02c        ,.      B        0x22c0 ; _dsub1 + 394
        0x00002266:    e022        ".      B        0x22ae ; _dsub1 + 376
        0x00002268:    4605        .F      MOV      r5,r0
        0x0000226a:    40f5        .@      LSRS     r5,r5,r6
        0x0000226c:    4315        .C      ORRS     r5,r5,r2
        0x0000226e:    4098        .@      LSLS     r0,r0,r3
        0x00002270:    1aca        ..      SUBS     r2,r1,r3
        0x00002272:    07e1        ..      LSLS     r1,r4,#31
        0x00002274:    1869        i.      ADDS     r1,r5,r1
        0x00002276:    0513        ..      LSLS     r3,r2,#20
        0x00002278:    18c9        ..      ADDS     r1,r1,r3
        0x0000227a:    2a00        .*      CMP      r2,#0
        0x0000227c:    dabb        ..      BGE      0x21f6 ; _dsub1 + 192
        0x0000227e:    2003        .       MOVS     r0,#3
        0x00002280:    0740        @.      LSLS     r0,r0,#29
        0x00002282:    1808        ..      ADDS     r0,r1,r0
        0x00002284:    0fc1        ..      LSRS     r1,r0,#31
        0x00002286:    07c9        ..      LSLS     r1,r1,#31
        0x00002288:    e00f        ..      B        0x22aa ; _dsub1 + 372
        0x0000228a:    4671        qF      MOV      r1,lr
        0x0000228c:    1861        a.      ADDS     r1,r4,r1
        0x0000228e:    e7b2        ..      B        0x21f6 ; _dsub1 + 192
        0x00002290:    07f1        ..      LSLS     r1,r6,#31
        0x00002292:    0840        @.      LSRS     r0,r0,#1
        0x00002294:    4308        .C      ORRS     r0,r0,r1
        0x00002296:    1071        q.      ASRS     r1,r6,#1
        0x00002298:    4471        qD      ADD      r1,r1,lr
        0x0000229a:    004a        J.      LSLS     r2,r1,#1
        0x0000229c:    d00c        ..      BEQ      0x22b8 ; _dsub1 + 386
        0x0000229e:    2301        .#      MOVS     r3,#1
        0x000022a0:    055b        [.      LSLS     r3,r3,#21
        0x000022a2:    429a        .B      CMP      r2,r3
        0x000022a4:    d2a7        ..      BCS      0x21f6 ; _dsub1 + 192
        0x000022a6:    0fc9        ..      LSRS     r1,r1,#31
        0x000022a8:    07c9        ..      LSLS     r1,r1,#31
        0x000022aa:    2000        .       MOVS     r0,#0
        0x000022ac:    e7a3        ..      B        0x21f6 ; _dsub1 + 192
        0x000022ae:    0549        I.      LSLS     r1,r1,#21
        0x000022b0:    0d49        I.      LSRS     r1,r1,#21
        0x000022b2:    d125        %.      BNE      0x2300 ; _dsub1 + 458
        0x000022b4:    2000        .       MOVS     r0,#0
        0x000022b6:    e001        ..      B        0x22bc ; _dsub1 + 390
        0x000022b8:    2800        .(      CMP      r0,#0
        0x000022ba:    d1f4        ..      BNE      0x22a6 ; _dsub1 + 368
        0x000022bc:    2100        .!      MOVS     r1,#0
        0x000022be:    e79a        ..      B        0x21f6 ; _dsub1 + 192
        0x000022c0:    4d24        $M      LDR      r5,[pc,#144] ; [0x2354] = 0xffe00000
        0x000022c2:    0066        f.      LSLS     r6,r4,#1
        0x000022c4:    2800        .(      CMP      r0,#0
        0x000022c6:    d001        ..      BEQ      0x22cc ; _dsub1 + 406
        0x000022c8:    2101        .!      MOVS     r1,#1
        0x000022ca:    e000        ..      B        0x22ce ; _dsub1 + 408
        0x000022cc:    2100        .!      MOVS     r1,#0
        0x000022ce:    1871        q.      ADDS     r1,r6,r1
        0x000022d0:    005f        _.      LSLS     r7,r3,#1
        0x000022d2:    2a00        .*      CMP      r2,#0
        0x000022d4:    d001        ..      BEQ      0x22da ; _dsub1 + 420
        0x000022d6:    2601        .&      MOVS     r6,#1
        0x000022d8:    e000        ..      B        0x22dc ; _dsub1 + 422
        0x000022da:    2600        .&      MOVS     r6,#0
        0x000022dc:    19be        ..      ADDS     r6,r7,r6
        0x000022de:    4f1f        .O      LDR      r7,[pc,#124] ; [0x235c] = 0x7ff80000
        0x000022e0:    42a9        .B      CMP      r1,r5
        0x000022e2:    d80f        ..      BHI      0x2304 ; _dsub1 + 462
        0x000022e4:    42ae        .B      CMP      r6,r5
        0x000022e6:    d80d        ..      BHI      0x2304 ; _dsub1 + 462
        0x000022e8:    42b1        .B      CMP      r1,r6
        0x000022ea:    d007        ..      BEQ      0x22fc ; _dsub1 + 454
        0x000022ec:    00bd        ..      LSLS     r5,r7,#2
        0x000022ee:    42a9        .B      CMP      r1,r5
        0x000022f0:    d006        ..      BEQ      0x2300 ; _dsub1 + 458
        0x000022f2:    4619        .F      MOV      r1,r3
        0x000022f4:    02a8        ..      LSLS     r0,r5,#10
        0x000022f6:    4041        A@      EORS     r1,r1,r0
        0x000022f8:    4610        .F      MOV      r0,r2
        0x000022fa:    e77c        |.      B        0x21f6 ; _dsub1 + 192
        0x000022fc:    429c        .B      CMP      r4,r3
        0x000022fe:    d001        ..      BEQ      0x2304 ; _dsub1 + 462
        0x00002300:    4621        !F      MOV      r1,r4
        0x00002302:    e778        x.      B        0x21f6 ; _dsub1 + 192
        0x00002304:    2000        .       MOVS     r0,#0
        0x00002306:    4639        9F      MOV      r1,r7
        0x00002308:    e775        u.      B        0x21f6 ; _dsub1 + 192
    __aeabi_dadd
    _dadd
        0x0000230a:    b430        0.      PUSH     {r4,r5}
        0x0000230c:    460c        .F      MOV      r4,r1
        0x0000230e:    405c        \@      EORS     r4,r4,r3
        0x00002310:    d504        ..      BPL      0x231c ; __aeabi_dadd + 18
        0x00002312:    2401        .$      MOVS     r4,#1
        0x00002314:    07e4        ..      LSLS     r4,r4,#31
        0x00002316:    4063        c@      EORS     r3,r3,r4
        0x00002318:    bc30        0.      POP      {r4,r5}
        0x0000231a:    e70c        ..      B        _dsub1 ; 0x2136
        0x0000231c:    bc30        0.      POP      {r4,r5}
        0x0000231e:    e67b        {.      B        _dadd1 ; 0x2018
    __aeabi_dsub
    _dsub
        0x00002320:    b430        0.      PUSH     {r4,r5}
        0x00002322:    460c        .F      MOV      r4,r1
        0x00002324:    405c        \@      EORS     r4,r4,r3
        0x00002326:    d504        ..      BPL      0x2332 ; __aeabi_dsub + 18
        0x00002328:    2401        .$      MOVS     r4,#1
        0x0000232a:    07e4        ..      LSLS     r4,r4,#31
        0x0000232c:    4063        c@      EORS     r3,r3,r4
        0x0000232e:    bc30        0.      POP      {r4,r5}
        0x00002330:    e672        r.      B        _dadd1 ; 0x2018
        0x00002332:    bc30        0.      POP      {r4,r5}
        0x00002334:    e6ff        ..      B        _dsub1 ; 0x2136
    __aeabi_drsub
    _drsb
        0x00002336:    b430        0.      PUSH     {r4,r5}
        0x00002338:    2401        .$      MOVS     r4,#1
        0x0000233a:    07e4        ..      LSLS     r4,r4,#31
        0x0000233c:    4061        a@      EORS     r1,r1,r4
        0x0000233e:    460d        .F      MOV      r5,r1
        0x00002340:    405d        ]@      EORS     r5,r5,r3
        0x00002342:    d401        ..      BMI      0x2348 ; __aeabi_drsub + 18
        0x00002344:    bc30        0.      POP      {r4,r5}
        0x00002346:    e667        g.      B        _dadd1 ; 0x2018
        0x00002348:    4063        c@      EORS     r3,r3,r4
        0x0000234a:    bc30        0.      POP      {r4,r5}
        0x0000234c:    e6f3        ..      B        _dsub1 ; 0x2136
    $d
        0x0000234e:    0000        ..      DCW    0
        0x00002350:    000007ff    ....    DCD    2047
        0x00002354:    ffe00000    ....    DCD    4292870144
        0x00002358:    7ff00000    ....    DCD    2146435072
        0x0000235c:    7ff80000    ....    DCD    2146959360
        0x00002360:    fff00000    ....    DCD    4293918720
    $t
    .text
    __aeabi_ddiv
    _ddiv
        0x00002364:    b5f0        ..      PUSH     {r4-r7,lr}
        0x00002366:    b41f        ..      PUSH     {r0-r4}
        0x00002368:    4ffa        .O      LDR      r7,[pc,#1000] ; [0x2754] = 0x7ff0000
        0x0000236a:    090e        ..      LSRS     r6,r1,#4
        0x0000236c:    091d        ..      LSRS     r5,r3,#4
        0x0000236e:    46bc        .F      MOV      r12,r7
        0x00002370:    403e        >@      ANDS     r6,r6,r7
        0x00002372:    403d        =@      ANDS     r5,r5,r7
        0x00002374:    460c        .F      MOV      r4,r1
        0x00002376:    43b7        .C      BICS     r7,r7,r6
        0x00002378:    405c        \@      EORS     r4,r4,r3
        0x0000237a:    b08c        ..      SUB      sp,sp,#0x30
        0x0000237c:    2f00        ./      CMP      r7,#0
        0x0000237e:    d07d        }.      BEQ      0x247c ; __aeabi_ddiv + 280
        0x00002380:    4667        gF      MOV      r7,r12
        0x00002382:    43af        .C      BICS     r7,r7,r5
        0x00002384:    d0fb        ..      BEQ      0x237e ; __aeabi_ddiv + 26
        0x00002386:    2d00        .-      CMP      r5,#0
        0x00002388:    d079        y.      BEQ      0x247e ; __aeabi_ddiv + 282
        0x0000238a:    2e00        ..      CMP      r6,#0
        0x0000238c:    d0fc        ..      BEQ      0x2388 ; __aeabi_ddiv + 36
        0x0000238e:    0fe2        ..      LSRS     r2,r4,#31
        0x00002390:    4332        2C      ORRS     r2,r2,r6
        0x00002392:    1b52        R.      SUBS     r2,r2,r5
        0x00002394:    24ff        .$      MOVS     r4,#0xff
        0x00002396:    04a4        ..      LSLS     r4,r4,#18
        0x00002398:    1912        ..      ADDS     r2,r2,r4
        0x0000239a:    9208        ..      STR      r2,[sp,#0x20]
        0x0000239c:    0d42        B.      LSRS     r2,r0,#21
        0x0000239e:    02cd        ..      LSLS     r5,r1,#11
        0x000023a0:    02c7        ..      LSLS     r7,r0,#11
        0x000023a2:    980e        ..      LDR      r0,[sp,#0x38]
        0x000023a4:    4315        .C      ORRS     r5,r5,r2
        0x000023a6:    0d42        B.      LSRS     r2,r0,#21
        0x000023a8:    02d9        ..      LSLS     r1,r3,#11
        0x000023aa:    4311        .C      ORRS     r1,r1,r2
        0x000023ac:    02c2        ..      LSLS     r2,r0,#11
        0x000023ae:    0360        `.      LSLS     r0,r4,#13
        0x000023b0:    4305        .C      ORRS     r5,r5,r0
        0x000023b2:    4301        .C      ORRS     r1,r1,r0
        0x000023b4:    0c08        ..      LSRS     r0,r1,#16
        0x000023b6:    9501        ..      STR      r5,[sp,#4]
        0x000023b8:    0c15        ..      LSRS     r5,r2,#16
        0x000023ba:    46ac        .F      MOV      r12,r5
        0x000023bc:    0405        ..      LSLS     r5,r0,#16
        0x000023be:    460b        .F      MOV      r3,r1
        0x000023c0:    43ab        .C      BICS     r3,r3,r5
        0x000023c2:    950a        ..      STR      r5,[sp,#0x28]
        0x000023c4:    4665        eF      MOV      r5,r12
        0x000023c6:    042d        -.      LSLS     r5,r5,#16
        0x000023c8:    43aa        .C      BICS     r2,r2,r5
        0x000023ca:    9509        ..      STR      r5,[sp,#0x24]
        0x000023cc:    4de2        .M      LDR      r5,[pc,#904] ; [0x2758] = 0x1c80
        0x000023ce:    0a04        ..      LSRS     r4,r0,#8
        0x000023d0:    447d        }D      ADD      r5,r5,pc
        0x000023d2:    1964        d.      ADDS     r4,r4,r5
        0x000023d4:    3c80        .<      SUBS     r4,r4,#0x80
        0x000023d6:    7825        %x      LDRB     r5,[r4,#0]
        0x000023d8:    4606        .F      MOV      r6,r0
        0x000023da:    436e        nC      MULS     r6,r5,r6
        0x000023dc:    2401        .$      MOVS     r4,#1
        0x000023de:    1976        v.      ADDS     r6,r6,r5
        0x000023e0:    05e4        ..      LSLS     r4,r4,#23
        0x000023e2:    1ba6        ..      SUBS     r6,r4,r6
        0x000023e4:    4375        uC      MULS     r5,r6,r5
        0x000023e6:    0ced        ..      LSRS     r5,r5,#19
        0x000023e8:    1cad        ..      ADDS     r5,r5,#2
        0x000023ea:    0b49        I.      LSRS     r1,r1,#13
        0x000023ec:    4369        iC      MULS     r1,r5,r1
        0x000023ee:    1949        I.      ADDS     r1,r1,r5
        0x000023f0:    01a4        ..      LSLS     r4,r4,#6
        0x000023f2:    1a61        a.      SUBS     r1,r4,r1
        0x000023f4:    0c0e        ..      LSRS     r6,r1,#16
        0x000023f6:    46b6        .F      MOV      lr,r6
        0x000023f8:    0436        6.      LSLS     r6,r6,#16
        0x000023fa:    43b1        .C      BICS     r1,r1,r6
        0x000023fc:    4369        iC      MULS     r1,r5,r1
        0x000023fe:    4676        vF      MOV      r6,lr
        0x00002400:    436e        nC      MULS     r6,r5,r6
        0x00002402:    0c09        ..      LSRS     r1,r1,#16
        0x00002404:    1871        q.      ADDS     r1,r6,r1
        0x00002406:    0989        ..      LSRS     r1,r1,#6
        0x00002408:    9105        ..      STR      r1,[sp,#0x14]
        0x0000240a:    07f9        ..      LSLS     r1,r7,#31
        0x0000240c:    d000        ..      BEQ      0x2410 ; __aeabi_ddiv + 172
        0x0000240e:    00a1        ..      LSLS     r1,r4,#2
        0x00002410:    9104        ..      STR      r1,[sp,#0x10]
        0x00002412:    9901        ..      LDR      r1,[sp,#4]
        0x00002414:    087f        ..      LSRS     r7,r7,#1
        0x00002416:    07cc        ..      LSLS     r4,r1,#31
        0x00002418:    4327        'C      ORRS     r7,r7,r4
        0x0000241a:    084c        L.      LSRS     r4,r1,#1
        0x0000241c:    9d05        ..      LDR      r5,[sp,#0x14]
        0x0000241e:    0be1        ..      LSRS     r1,r4,#15
        0x00002420:    434d        MC      MULS     r5,r1,r5
        0x00002422:    0c2d        -.      LSRS     r5,r5,#16
        0x00002424:    4629        )F      MOV      r1,r5
        0x00002426:    4666        fF      MOV      r6,r12
        0x00002428:    4375        uC      MULS     r5,r6,r5
        0x0000242a:    9502        ..      STR      r5,[sp,#8]
        0x0000242c:    460d        .F      MOV      r5,r1
        0x0000242e:    4345        EC      MULS     r5,r0,r5
        0x00002430:    462e        .F      MOV      r6,r5
        0x00002432:    9d02        ..      LDR      r5,[sp,#8]
        0x00002434:    1b7d        }.      SUBS     r5,r7,r5
        0x00002436:    41b4        .A      SBCS     r4,r4,r6
        0x00002438:    9500        ..      STR      r5,[sp,#0]
        0x0000243a:    460d        .F      MOV      r5,r1
        0x0000243c:    435d        ]C      MULS     r5,r3,r5
        0x0000243e:    9401        ..      STR      r4,[sp,#4]
        0x00002440:    0c2c        ,.      LSRS     r4,r5,#16
        0x00002442:    042f        /.      LSLS     r7,r5,#16
        0x00002444:    460d        .F      MOV      r5,r1
        0x00002446:    4355        UC      MULS     r5,r2,r5
        0x00002448:    46ae        .F      MOV      lr,r5
        0x0000244a:    0c2d        -.      LSRS     r5,r5,#16
        0x0000244c:    433d        =C      ORRS     r5,r5,r7
        0x0000244e:    9502        ..      STR      r5,[sp,#8]
        0x00002450:    9403        ..      STR      r4,[sp,#0xc]
        0x00002452:    4675        uF      MOV      r5,lr
        0x00002454:    9c04        ..      LDR      r4,[sp,#0x10]
        0x00002456:    042d        -.      LSLS     r5,r5,#16
        0x00002458:    1b64        d.      SUBS     r4,r4,r5
        0x0000245a:    9404        ..      STR      r4,[sp,#0x10]
        0x0000245c:    d206        ..      BCS      0x246c ; __aeabi_ddiv + 264
        0x0000245e:    9c02        ..      LDR      r4,[sp,#8]
        0x00002460:    9d03        ..      LDR      r5,[sp,#0xc]
        0x00002462:    1c64        d.      ADDS     r4,r4,#1
        0x00002464:    2600        .&      MOVS     r6,#0
        0x00002466:    4175        uA      ADCS     r5,r5,r6
        0x00002468:    9503        ..      STR      r5,[sp,#0xc]
        0x0000246a:    9402        ..      STR      r4,[sp,#8]
        0x0000246c:    ac01        ..      ADD      r4,sp,#4
        0x0000246e:    cc70        p.      LDM      r4,{r4-r6}
        0x00002470:    9f00        ..      LDR      r7,[sp,#0]
        0x00002472:    1b7d        }.      SUBS     r5,r7,r5
        0x00002474:    41b4        .A      SBCS     r4,r4,r6
        0x00002476:    0409        ..      LSLS     r1,r1,#16
        0x00002478:    9500        ..      STR      r5,[sp,#0]
        0x0000247a:    e001        ..      B        0x2480 ; __aeabi_ddiv + 284
        0x0000247c:    e13b        ;.      B        0x26f6 ; __aeabi_ddiv + 914
        0x0000247e:    e15f        _.      B        0x2740 ; __aeabi_ddiv + 988
        0x00002480:    9107        ..      STR      r1,[sp,#0x1c]
        0x00002482:    9401        ..      STR      r4,[sp,#4]
        0x00002484:    9905        ..      LDR      r1,[sp,#0x14]
        0x00002486:    08a4        ..      LSRS     r4,r4,#2
        0x00002488:    4361        aC      MULS     r1,r4,r1
        0x0000248a:    0c09        ..      LSRS     r1,r1,#16
        0x0000248c:    460c        .F      MOV      r4,r1
        0x0000248e:    4344        DC      MULS     r4,r0,r4
        0x00002490:    0b65        e.      LSRS     r5,r4,#13
        0x00002492:    04e7        ..      LSLS     r7,r4,#19
        0x00002494:    4664        dF      MOV      r4,r12
        0x00002496:    434c        LC      MULS     r4,r1,r4
        0x00002498:    46a6        .F      MOV      lr,r4
        0x0000249a:    0b64        d.      LSRS     r4,r4,#13
        0x0000249c:    433c        <C      ORRS     r4,r4,r7
        0x0000249e:    9503        ..      STR      r5,[sp,#0xc]
        0x000024a0:    9402        ..      STR      r4,[sp,#8]
        0x000024a2:    4674        tF      MOV      r4,lr
        0x000024a4:    9d04        ..      LDR      r5,[sp,#0x10]
        0x000024a6:    04e4        ..      LSLS     r4,r4,#19
        0x000024a8:    1b2c        ,.      SUBS     r4,r5,r4
        0x000024aa:    9404        ..      STR      r4,[sp,#0x10]
        0x000024ac:    d206        ..      BCS      0x24bc ; __aeabi_ddiv + 344
        0x000024ae:    9c02        ..      LDR      r4,[sp,#8]
        0x000024b0:    9d03        ..      LDR      r5,[sp,#0xc]
        0x000024b2:    1c64        d.      ADDS     r4,r4,#1
        0x000024b4:    2600        .&      MOVS     r6,#0
        0x000024b6:    4175        uA      ADCS     r5,r5,r6
        0x000024b8:    9503        ..      STR      r5,[sp,#0xc]
        0x000024ba:    9402        ..      STR      r4,[sp,#8]
        0x000024bc:    ac01        ..      ADD      r4,sp,#4
        0x000024be:    cc70        p.      LDM      r4,{r4-r6}
        0x000024c0:    9f00        ..      LDR      r7,[sp,#0]
        0x000024c2:    1b7d        }.      SUBS     r5,r7,r5
        0x000024c4:    41b4        .A      SBCS     r4,r4,r6
        0x000024c6:    9401        ..      STR      r4,[sp,#4]
        0x000024c8:    460c        .F      MOV      r4,r1
        0x000024ca:    435c        \C      MULS     r4,r3,r4
        0x000024cc:    9500        ..      STR      r5,[sp,#0]
        0x000024ce:    0f65        e.      LSRS     r5,r4,#29
        0x000024d0:    00e7        ..      LSLS     r7,r4,#3
        0x000024d2:    460c        .F      MOV      r4,r1
        0x000024d4:    4354        TC      MULS     r4,r2,r4
        0x000024d6:    46a6        .F      MOV      lr,r4
        0x000024d8:    0f64        d.      LSRS     r4,r4,#29
        0x000024da:    433c        <C      ORRS     r4,r4,r7
        0x000024dc:    9503        ..      STR      r5,[sp,#0xc]
        0x000024de:    9402        ..      STR      r4,[sp,#8]
        0x000024e0:    4674        tF      MOV      r4,lr
        0x000024e2:    9d04        ..      LDR      r5,[sp,#0x10]
        0x000024e4:    00e4        ..      LSLS     r4,r4,#3
        0x000024e6:    1b2c        ,.      SUBS     r4,r5,r4
        0x000024e8:    9404        ..      STR      r4,[sp,#0x10]
        0x000024ea:    d206        ..      BCS      0x24fa ; __aeabi_ddiv + 406
        0x000024ec:    9c02        ..      LDR      r4,[sp,#8]
        0x000024ee:    9d03        ..      LDR      r5,[sp,#0xc]
        0x000024f0:    1c64        d.      ADDS     r4,r4,#1
        0x000024f2:    2600        .&      MOVS     r6,#0
        0x000024f4:    4175        uA      ADCS     r5,r5,r6
        0x000024f6:    9503        ..      STR      r5,[sp,#0xc]
        0x000024f8:    9402        ..      STR      r4,[sp,#8]
        0x000024fa:    ac01        ..      ADD      r4,sp,#4
        0x000024fc:    cc70        p.      LDM      r4,{r4-r6}
        0x000024fe:    9f00        ..      LDR      r7,[sp,#0]
        0x00002500:    1b7d        }.      SUBS     r5,r7,r5
        0x00002502:    41b4        .A      SBCS     r4,r4,r6
        0x00002504:    09ae        ..      LSRS     r6,r5,#6
        0x00002506:    06af        ..      LSLS     r7,r5,#26
        0x00002508:    9d04        ..      LDR      r5,[sp,#0x10]
        0x0000250a:    00c9        ..      LSLS     r1,r1,#3
        0x0000250c:    09ad        ..      LSRS     r5,r5,#6
        0x0000250e:    432f        /C      ORRS     r7,r7,r5
        0x00002510:    9d04        ..      LDR      r5,[sp,#0x10]
        0x00002512:    06a4        ..      LSLS     r4,r4,#26
        0x00002514:    06ad        ..      LSLS     r5,r5,#26
        0x00002516:    9504        ..      STR      r5,[sp,#0x10]
        0x00002518:    9d07        ..      LDR      r5,[sp,#0x1c]
        0x0000251a:    4334        4C      ORRS     r4,r4,r6
        0x0000251c:    1869        i.      ADDS     r1,r5,r1
        0x0000251e:    9107        ..      STR      r1,[sp,#0x1c]
        0x00002520:    9d05        ..      LDR      r5,[sp,#0x14]
        0x00002522:    0be1        ..      LSRS     r1,r4,#15
        0x00002524:    434d        MC      MULS     r5,r1,r5
        0x00002526:    0c2d        -.      LSRS     r5,r5,#16
        0x00002528:    4629        )F      MOV      r1,r5
        0x0000252a:    4666        fF      MOV      r6,r12
        0x0000252c:    4375        uC      MULS     r5,r6,r5
        0x0000252e:    9502        ..      STR      r5,[sp,#8]
        0x00002530:    460d        .F      MOV      r5,r1
        0x00002532:    4345        EC      MULS     r5,r0,r5
        0x00002534:    462e        .F      MOV      r6,r5
        0x00002536:    9d02        ..      LDR      r5,[sp,#8]
        0x00002538:    1b7d        }.      SUBS     r5,r7,r5
        0x0000253a:    41b4        .A      SBCS     r4,r4,r6
        0x0000253c:    9500        ..      STR      r5,[sp,#0]
        0x0000253e:    460d        .F      MOV      r5,r1
        0x00002540:    435d        ]C      MULS     r5,r3,r5
        0x00002542:    9401        ..      STR      r4,[sp,#4]
        0x00002544:    0c2c        ,.      LSRS     r4,r5,#16
        0x00002546:    042f        /.      LSLS     r7,r5,#16
        0x00002548:    460d        .F      MOV      r5,r1
        0x0000254a:    4355        UC      MULS     r5,r2,r5
        0x0000254c:    46ae        .F      MOV      lr,r5
        0x0000254e:    0c2d        -.      LSRS     r5,r5,#16
        0x00002550:    433d        =C      ORRS     r5,r5,r7
        0x00002552:    9502        ..      STR      r5,[sp,#8]
        0x00002554:    9403        ..      STR      r4,[sp,#0xc]
        0x00002556:    4675        uF      MOV      r5,lr
        0x00002558:    9c04        ..      LDR      r4,[sp,#0x10]
        0x0000255a:    042d        -.      LSLS     r5,r5,#16
        0x0000255c:    1b64        d.      SUBS     r4,r4,r5
        0x0000255e:    9404        ..      STR      r4,[sp,#0x10]
        0x00002560:    d206        ..      BCS      0x2570 ; __aeabi_ddiv + 524
        0x00002562:    9c02        ..      LDR      r4,[sp,#8]
        0x00002564:    9d03        ..      LDR      r5,[sp,#0xc]
        0x00002566:    1c64        d.      ADDS     r4,r4,#1
        0x00002568:    2600        .&      MOVS     r6,#0
        0x0000256a:    4175        uA      ADCS     r5,r5,r6
        0x0000256c:    9503        ..      STR      r5,[sp,#0xc]
        0x0000256e:    9402        ..      STR      r4,[sp,#8]
        0x00002570:    ac01        ..      ADD      r4,sp,#4
        0x00002572:    cc70        p.      LDM      r4,{r4-r6}
        0x00002574:    9f00        ..      LDR      r7,[sp,#0]
        0x00002576:    1b7d        }.      SUBS     r5,r7,r5
        0x00002578:    41b4        .A      SBCS     r4,r4,r6
        0x0000257a:    9401        ..      STR      r4,[sp,#4]
        0x0000257c:    058c        ..      LSLS     r4,r1,#22
        0x0000257e:    9406        ..      STR      r4,[sp,#0x18]
        0x00002580:    9c07        ..      LDR      r4,[sp,#0x1c]
        0x00002582:    0a89        ..      LSRS     r1,r1,#10
        0x00002584:    1861        a.      ADDS     r1,r4,r1
        0x00002586:    9500        ..      STR      r5,[sp,#0]
        0x00002588:    9107        ..      STR      r1,[sp,#0x1c]
        0x0000258a:    9c01        ..      LDR      r4,[sp,#4]
        0x0000258c:    9905        ..      LDR      r1,[sp,#0x14]
        0x0000258e:    08a4        ..      LSRS     r4,r4,#2
        0x00002590:    4361        aC      MULS     r1,r4,r1
        0x00002592:    0c09        ..      LSRS     r1,r1,#16
        0x00002594:    460d        .F      MOV      r5,r1
        0x00002596:    4345        EC      MULS     r5,r0,r5
        0x00002598:    0b68        h.      LSRS     r0,r5,#13
        0x0000259a:    04ef        ..      LSLS     r7,r5,#19
        0x0000259c:    460d        .F      MOV      r5,r1
        0x0000259e:    4664        dF      MOV      r4,r12
        0x000025a0:    4365        eC      MULS     r5,r4,r5
        0x000025a2:    0b6c        l.      LSRS     r4,r5,#13
        0x000025a4:    433c        <C      ORRS     r4,r4,r7
        0x000025a6:    9f04        ..      LDR      r7,[sp,#0x10]
        0x000025a8:    04ed        ..      LSLS     r5,r5,#19
        0x000025aa:    1b7d        }.      SUBS     r5,r7,r5
        0x000025ac:    46ac        .F      MOV      r12,r5
        0x000025ae:    d202        ..      BCS      0x25b6 ; __aeabi_ddiv + 594
        0x000025b0:    2500        .%      MOVS     r5,#0
        0x000025b2:    1c64        d.      ADDS     r4,r4,#1
        0x000025b4:    4168        hA      ADCS     r0,r0,r5
        0x000025b6:    9e00        ..      LDR      r6,[sp,#0]
        0x000025b8:    9d01        ..      LDR      r5,[sp,#4]
        0x000025ba:    1b37        7.      SUBS     r7,r6,r4
        0x000025bc:    4185        .A      SBCS     r5,r5,r0
        0x000025be:    4608        .F      MOV      r0,r1
        0x000025c0:    4358        XC      MULS     r0,r3,r0
        0x000025c2:    9501        ..      STR      r5,[sp,#4]
        0x000025c4:    460c        .F      MOV      r4,r1
        0x000025c6:    0f46        F.      LSRS     r6,r0,#29
        0x000025c8:    00c5        ..      LSLS     r5,r0,#3
        0x000025ca:    4354        TC      MULS     r4,r2,r4
        0x000025cc:    0f60        `.      LSRS     r0,r4,#29
        0x000025ce:    4328        (C      ORRS     r0,r0,r5
        0x000025d0:    4665        eF      MOV      r5,r12
        0x000025d2:    00e4        ..      LSLS     r4,r4,#3
        0x000025d4:    1b2c        ,.      SUBS     r4,r5,r4
        0x000025d6:    d202        ..      BCS      0x25de ; __aeabi_ddiv + 634
        0x000025d8:    2500        .%      MOVS     r5,#0
        0x000025da:    1c40        @.      ADDS     r0,r0,#1
        0x000025dc:    416e        nA      ADCS     r6,r6,r5
        0x000025de:    9d01        ..      LDR      r5,[sp,#4]
        0x000025e0:    1a3f        ?.      SUBS     r7,r7,r0
        0x000025e2:    41b5        .A      SBCS     r5,r5,r6
        0x000025e4:    4628        (F      MOV      r0,r5
        0x000025e6:    09bd        ..      LSRS     r5,r7,#6
        0x000025e8:    0680        ..      LSLS     r0,r0,#26
        0x000025ea:    4328        (C      ORRS     r0,r0,r5
        0x000025ec:    4684        .F      MOV      r12,r0
        0x000025ee:    09a0        ..      LSRS     r0,r4,#6
        0x000025f0:    06bf        ..      LSLS     r7,r7,#26
        0x000025f2:    024e        N.      LSLS     r6,r1,#9
        0x000025f4:    9906        ..      LDR      r1,[sp,#0x18]
        0x000025f6:    06a4        ..      LSLS     r4,r4,#26
        0x000025f8:    1876        v.      ADDS     r6,r6,r1
        0x000025fa:    4307        .C      ORRS     r7,r7,r0
        0x000025fc:    9d07        ..      LDR      r5,[sp,#0x1c]
        0x000025fe:    2000        .       MOVS     r0,#0
        0x00002600:    4168        hA      ADCS     r0,r0,r5
        0x00002602:    990a        ..      LDR      r1,[sp,#0x28]
        0x00002604:    9007        ..      STR      r0,[sp,#0x1c]
        0x00002606:    4319        .C      ORRS     r1,r1,r3
        0x00002608:    2000        .       MOVS     r0,#0
        0x0000260a:    9b09        ..      LDR      r3,[sp,#0x24]
        0x0000260c:    9000        ..      STR      r0,[sp,#0]
        0x0000260e:    4660        `F      MOV      r0,r12
        0x00002610:    19ff        ..      ADDS     r7,r7,r7
        0x00002612:    4313        .C      ORRS     r3,r3,r2
        0x00002614:    4140        @A      ADCS     r0,r0,r0
        0x00002616:    0fe2        ..      LSRS     r2,r4,#31
        0x00002618:    0064        d.      LSLS     r4,r4,#1
        0x0000261a:    433a        :C      ORRS     r2,r2,r7
        0x0000261c:    46a4        .F      MOV      r12,r4
        0x0000261e:    4604        .F      MOV      r4,r0
        0x00002620:    1ad7        ..      SUBS     r7,r2,r3
        0x00002622:    418c        .A      SBCS     r4,r4,r1
        0x00002624:    42a0        .B      CMP      r0,r4
        0x00002626:    d903        ..      BLS      0x2630 ; __aeabi_ddiv + 716
        0x00002628:    2001        .       MOVS     r0,#1
        0x0000262a:    9000        ..      STR      r0,[sp,#0]
        0x0000262c:    4620         F      MOV      r0,r4
        0x0000262e:    463a        :F      MOV      r2,r7
        0x00002630:    0fc7        ..      LSRS     r7,r0,#31
        0x00002632:    1894        ..      ADDS     r4,r2,r2
        0x00002634:    4140        @A      ADCS     r0,r0,r0
        0x00002636:    4662        bF      MOV      r2,r12
        0x00002638:    0fd2        ..      LSRS     r2,r2,#31
        0x0000263a:    4322        "C      ORRS     r2,r2,r4
        0x0000263c:    4664        dF      MOV      r4,r12
        0x0000263e:    0064        d.      LSLS     r4,r4,#1
        0x00002640:    9404        ..      STR      r4,[sp,#0x10]
        0x00002642:    9c00        ..      LDR      r4,[sp,#0]
        0x00002644:    46be        .F      MOV      lr,r7
        0x00002646:    0064        d.      LSLS     r4,r4,#1
        0x00002648:    1ad7        ..      SUBS     r7,r2,r3
        0x0000264a:    46a4        .F      MOV      r12,r4
        0x0000264c:    4604        .F      MOV      r4,r0
        0x0000264e:    9702        ..      STR      r7,[sp,#8]
        0x00002650:    418c        .A      SBCS     r4,r4,r1
        0x00002652:    4677        wF      MOV      r7,lr
        0x00002654:    2f00        ./      CMP      r7,#0
        0x00002656:    d101        ..      BNE      0x265c ; __aeabi_ddiv + 760
        0x00002658:    42a0        .B      CMP      r0,r4
        0x0000265a:    d904        ..      BLS      0x2666 ; __aeabi_ddiv + 770
        0x0000265c:    4660        `F      MOV      r0,r12
        0x0000265e:    1c40        @.      ADDS     r0,r0,#1
        0x00002660:    4684        .F      MOV      r12,r0
        0x00002662:    9a02        ..      LDR      r2,[sp,#8]
        0x00002664:    4620         F      MOV      r0,r4
        0x00002666:    0fc4        ..      LSRS     r4,r0,#31
        0x00002668:    46a6        .F      MOV      lr,r4
        0x0000266a:    1894        ..      ADDS     r4,r2,r2
        0x0000266c:    4140        @A      ADCS     r0,r0,r0
        0x0000266e:    9a04        ..      LDR      r2,[sp,#0x10]
        0x00002670:    4605        .F      MOV      r5,r0
        0x00002672:    0fd2        ..      LSRS     r2,r2,#31
        0x00002674:    4322        "C      ORRS     r2,r2,r4
        0x00002676:    4664        dF      MOV      r4,r12
        0x00002678:    0064        d.      LSLS     r4,r4,#1
        0x0000267a:    1ad3        ..      SUBS     r3,r2,r3
        0x0000267c:    418d        .A      SBCS     r5,r5,r1
        0x0000267e:    4671        qF      MOV      r1,lr
        0x00002680:    2900        .)      CMP      r1,#0
        0x00002682:    d101        ..      BNE      0x2688 ; __aeabi_ddiv + 804
        0x00002684:    42a8        .B      CMP      r0,r5
        0x00002686:    d902        ..      BLS      0x268e ; __aeabi_ddiv + 810
        0x00002688:    1c64        d.      ADDS     r4,r4,#1
        0x0000268a:    4628        (F      MOV      r0,r5
        0x0000268c:    461a        .F      MOV      r2,r3
        0x0000268e:    4310        .C      ORRS     r0,r0,r2
        0x00002690:    2201        ."      MOVS     r2,#1
        0x00002692:    2800        .(      CMP      r0,#0
        0x00002694:    d000        ..      BEQ      0x2698 ; __aeabi_ddiv + 820
        0x00002696:    4316        .C      ORRS     r6,r6,r2
        0x00002698:    0261        a.      LSLS     r1,r4,#9
        0x0000269a:    2000        .       MOVS     r0,#0
        0x0000269c:    9b07        ..      LDR      r3,[sp,#0x1c]
        0x0000269e:    4604        .F      MOV      r4,r0
        0x000026a0:    1989        ..      ADDS     r1,r1,r6
        0x000026a2:    415c        \A      ADCS     r4,r4,r3
        0x000026a4:    2302        .#      MOVS     r3,#2
        0x000026a6:    2c00        .,      CMP      r4,#0
        0x000026a8:    db02        ..      BLT      0x26b0 ; __aeabi_ddiv + 844
        0x000026aa:    1849        I.      ADDS     r1,r1,r1
        0x000026ac:    4613        .F      MOV      r3,r2
        0x000026ae:    4164        dA      ADCS     r4,r4,r4
        0x000026b0:    9d08        ..      LDR      r5,[sp,#0x20]
        0x000026b2:    0ace        ..      LSRS     r6,r1,#11
        0x000026b4:    142d        -.      ASRS     r5,r5,#16
        0x000026b6:    195d        ].      ADDS     r5,r3,r5
        0x000026b8:    054b        K.      LSLS     r3,r1,#21
        0x000026ba:    0567        g.      LSLS     r7,r4,#21
        0x000026bc:    0ae1        ..      LSRS     r1,r4,#11
        0x000026be:    052c        ,.      LSLS     r4,r5,#20
        0x000026c0:    190c        ..      ADDS     r4,r1,r4
        0x000026c2:    9908        ..      LDR      r1,[sp,#0x20]
        0x000026c4:    433e        >C      ORRS     r6,r6,r7
        0x000026c6:    07c9        ..      LSLS     r1,r1,#31
        0x000026c8:    4061        a@      EORS     r1,r1,r4
        0x000026ca:    2b00        .+      CMP      r3,#0
        0x000026cc:    d008        ..      BEQ      0x26e0 ; __aeabi_ddiv + 892
        0x000026ce:    4093        .@      LSLS     r3,r3,r2
        0x000026d0:    d306        ..      BCC      0x26e0 ; __aeabi_ddiv + 892
        0x000026d2:    2200        ."      MOVS     r2,#0
        0x000026d4:    1c76        v.      ADDS     r6,r6,#1
        0x000026d6:    4151        QA      ADCS     r1,r1,r2
        0x000026d8:    2b00        .+      CMP      r3,#0
        0x000026da:    d101        ..      BNE      0x26e0 ; __aeabi_ddiv + 892
        0x000026dc:    0876        v.      LSRS     r6,r6,#1
        0x000026de:    0076        v.      LSLS     r6,r6,#1
        0x000026e0:    4a1e        .J      LDR      r2,[pc,#120] ; [0x275c] = 0x7ff00000
        0x000026e2:    2c00        .,      CMP      r4,#0
        0x000026e4:    db45        E.      BLT      0x2772 ; __aeabi_ddiv + 1038
        0x000026e6:    4623        #F      MOV      r3,r4
        0x000026e8:    4213        .B      TST      r3,r2
        0x000026ea:    d042        B.      BEQ      0x2772 ; __aeabi_ddiv + 1038
        0x000026ec:    43a2        .C      BICS     r2,r2,r4
        0x000026ee:    d040        @.      BEQ      0x2772 ; __aeabi_ddiv + 1038
        0x000026f0:    4630        0F      MOV      r0,r6
        0x000026f2:    b011        ..      ADD      sp,sp,#0x44
        0x000026f4:    bdf0        ..      POP      {r4-r7,pc}
        0x000026f6:    460e        .F      MOV      r6,r1
        0x000026f8:    1807        ..      ADDS     r7,r0,r0
        0x000026fa:    414e        NA      ADCS     r6,r6,r1
        0x000026fc:    4d18        .M      LDR      r5,[pc,#96] ; [0x2760] = 0xffe00000
        0x000026fe:    427a        zB      RSBS     r2,r7,#0
        0x00002700:    41b5        .A      SBCS     r5,r5,r6
        0x00002702:    d31a        ..      BCC      0x273a ; __aeabi_ddiv + 982
        0x00002704:    9a0e        ..      LDR      r2,[sp,#0x38]
        0x00002706:    461d        .F      MOV      r5,r3
        0x00002708:    1896        ..      ADDS     r6,r2,r2
        0x0000270a:    415d        ]A      ADCS     r5,r5,r3
        0x0000270c:    4a14        .J      LDR      r2,[pc,#80] ; [0x2760] = 0xffe00000
        0x0000270e:    4276        vB      RSBS     r6,r6,#0
        0x00002710:    41aa        .A      SBCS     r2,r2,r5
        0x00002712:    d312        ..      BCC      0x273a ; __aeabi_ddiv + 982
        0x00002714:    2201        ."      MOVS     r2,#1
        0x00002716:    0552        R.      LSLS     r2,r2,#21
        0x00002718:    004d        M.      LSLS     r5,r1,#1
        0x0000271a:    42d5        .B      CMN      r5,r2
        0x0000271c:    d10a        ..      BNE      0x2734 ; __aeabi_ddiv + 976
        0x0000271e:    005c        \.      LSLS     r4,r3,#1
        0x00002720:    42d4        .B      CMN      r4,r2
        0x00002722:    d00a        ..      BEQ      0x273a ; __aeabi_ddiv + 982
        0x00002724:    404b        K@      EORS     r3,r3,r1
        0x00002726:    d502        ..      BPL      0x272e ; __aeabi_ddiv + 970
        0x00002728:    0292        ..      LSLS     r2,r2,#10
        0x0000272a:    4311        .C      ORRS     r1,r1,r2
        0x0000272c:    e7e1        ..      B        0x26f2 ; __aeabi_ddiv + 910
        0x0000272e:    0049        I.      LSLS     r1,r1,#1
        0x00002730:    0849        I.      LSRS     r1,r1,#1
        0x00002732:    e7de        ..      B        0x26f2 ; __aeabi_ddiv + 910
        0x00002734:    0fe1        ..      LSRS     r1,r4,#31
        0x00002736:    07c9        ..      LSLS     r1,r1,#31
        0x00002738:    e00a        ..      B        0x2750 ; __aeabi_ddiv + 1004
        0x0000273a:    2000        .       MOVS     r0,#0
        0x0000273c:    4909        .I      LDR      r1,[pc,#36] ; [0x2764] = 0x7ff80000
        0x0000273e:    e7d8        ..      B        0x26f2 ; __aeabi_ddiv + 910
        0x00002740:    4806        .H      LDR      r0,[pc,#24] ; [0x275c] = 0x7ff00000
        0x00002742:    4201        .B      TST      r1,r0
        0x00002744:    d012        ..      BEQ      0x276c ; __aeabi_ddiv + 1032
        0x00002746:    4808        .H      LDR      r0,[pc,#32] ; [0x2768] = 0x7fffffff
        0x00002748:    4621        !F      MOV      r1,r4
        0x0000274a:    4301        .C      ORRS     r1,r1,r0
        0x0000274c:    12c0        ..      ASRS     r0,r0,#11
        0x0000274e:    4041        A@      EORS     r1,r1,r0
        0x00002750:    2000        .       MOVS     r0,#0
        0x00002752:    e7ce        ..      B        0x26f2 ; __aeabi_ddiv + 910
    $d
        0x00002754:    07ff0000    ....    DCD    134152192
        0x00002758:    00001c80    ....    DCD    7296
        0x0000275c:    7ff00000    ....    DCD    2146435072
        0x00002760:    ffe00000    ....    DCD    4292870144
        0x00002764:    7ff80000    ....    DCD    2146959360
        0x00002768:    7fffffff    ....    DCD    2147483647
    $t
        0x0000276c:    4203        .B      TST      r3,r0
        0x0000276e:    d0e4        ..      BEQ      0x273a ; __aeabi_ddiv + 982
        0x00002770:    e7e0        ..      B        0x2734 ; __aeabi_ddiv + 976
        0x00002772:    2301        .#      MOVS     r3,#1
        0x00002774:    9a08        ..      LDR      r2,[sp,#0x20]
        0x00002776:    069b        ..      LSLS     r3,r3,#26
        0x00002778:    429a        .B      CMP      r2,r3
        0x0000277a:    dc05        ..      BGT      0x2788 ; __aeabi_ddiv + 1060
        0x0000277c:    2203        ."      MOVS     r2,#3
        0x0000277e:    0752        R.      LSLS     r2,r2,#29
        0x00002780:    1889        ..      ADDS     r1,r1,r2
        0x00002782:    0fc9        ..      LSRS     r1,r1,#31
        0x00002784:    07c9        ..      LSLS     r1,r1,#31
        0x00002786:    e7b4        ..      B        0x26f2 ; __aeabi_ddiv + 910
        0x00002788:    2205        ."      MOVS     r2,#5
        0x0000278a:    0752        R.      LSLS     r2,r2,#29
        0x0000278c:    1889        ..      ADDS     r1,r1,r2
        0x0000278e:    4a07        .J      LDR      r2,[pc,#28] ; [0x27ac] = 0x7fffffff
        0x00002790:    4311        .C      ORRS     r1,r1,r2
        0x00002792:    12d2        ..      ASRS     r2,r2,#11
        0x00002794:    4051        Q@      EORS     r1,r1,r2
        0x00002796:    e7ac        ..      B        0x26f2 ; __aeabi_ddiv + 910
    _drdiv
        0x00002798:    4059        Y@      EORS     r1,r1,r3
        0x0000279a:    4050        P@      EORS     r0,r0,r2
        0x0000279c:    b510        ..      PUSH     {r4,lr}
        0x0000279e:    404b        K@      EORS     r3,r3,r1
        0x000027a0:    4042        B@      EORS     r2,r2,r0
        0x000027a2:    4059        Y@      EORS     r1,r1,r3
        0x000027a4:    4050        P@      EORS     r0,r0,r2
        0x000027a6:    f7fffddd    ....    BL       __aeabi_ddiv ; 0x2364
        0x000027aa:    bd10        ..      POP      {r4,pc}
    $d
        0x000027ac:    7fffffff    ....    DCD    2147483647
    $t
    .text
    __aeabi_dmul
    _dmul
        0x000027b0:    b5f0        ..      PUSH     {r4-r7,lr}
        0x000027b2:    4c90        .L      LDR      r4,[pc,#576] ; [0x29f4] = 0x7ff0000
        0x000027b4:    090d        ..      LSRS     r5,r1,#4
        0x000027b6:    4626        &F      MOV      r6,r4
        0x000027b8:    46ac        .F      MOV      r12,r5
        0x000027ba:    43ae        .C      BICS     r6,r6,r5
        0x000027bc:    460d        .F      MOV      r5,r1
        0x000027be:    405d        ]@      EORS     r5,r5,r3
        0x000027c0:    b087        ..      SUB      sp,sp,#0x1c
        0x000027c2:    2e00        ..      CMP      r6,#0
        0x000027c4:    d07e        ~.      BEQ      0x28c4 ; __aeabi_dmul + 276
        0x000027c6:    091e        ..      LSRS     r6,r3,#4
        0x000027c8:    4627        'F      MOV      r7,r4
        0x000027ca:    43b7        .C      BICS     r7,r7,r6
        0x000027cc:    d0fa        ..      BEQ      0x27c4 ; __aeabi_dmul + 20
        0x000027ce:    4667        gF      MOV      r7,r12
        0x000027d0:    4027        '@      ANDS     r7,r7,r4
        0x000027d2:    0fed        ..      LSRS     r5,r5,#31
        0x000027d4:    433d        =C      ORRS     r5,r5,r7
        0x000027d6:    4026        &@      ANDS     r6,r6,r4
        0x000027d8:    d075        u.      BEQ      0x28c6 ; __aeabi_dmul + 278
        0x000027da:    0124        $.      LSLS     r4,r4,#4
        0x000027dc:    4221        !B      TST      r1,r4
        0x000027de:    d0fb        ..      BEQ      0x27d8 ; __aeabi_dmul + 40
        0x000027e0:    1974        t.      ADDS     r4,r6,r5
        0x000027e2:    25ff        .%      MOVS     r5,#0xff
        0x000027e4:    04ad        ..      LSLS     r5,r5,#18
        0x000027e6:    1b64        d.      SUBS     r4,r4,r5
        0x000027e8:    9404        ..      STR      r4,[sp,#0x10]
        0x000027ea:    02cc        ..      LSLS     r4,r1,#11
        0x000027ec:    02d9        ..      LSLS     r1,r3,#11
        0x000027ee:    2301        .#      MOVS     r3,#1
        0x000027f0:    051b        ..      LSLS     r3,r3,#20
        0x000027f2:    0ac9        ..      LSRS     r1,r1,#11
        0x000027f4:    4319        .C      ORRS     r1,r1,r3
        0x000027f6:    0ae4        ..      LSRS     r4,r4,#11
        0x000027f8:    431c        .C      ORRS     r4,r4,r3
        0x000027fa:    010f        ..      LSLS     r7,r1,#4
        0x000027fc:    0124        $.      LSLS     r4,r4,#4
        0x000027fe:    0f03        ..      LSRS     r3,r0,#28
        0x00002800:    0f11        ..      LSRS     r1,r2,#28
        0x00002802:    431c        .C      ORRS     r4,r4,r3
        0x00002804:    430f        .C      ORRS     r7,r7,r1
        0x00002806:    0105        ..      LSLS     r5,r0,#4
        0x00002808:    0ba1        ..      LSRS     r1,r4,#14
        0x0000280a:    0388        ..      LSLS     r0,r1,#14
        0x0000280c:    092d        -.      LSRS     r5,r5,#4
        0x0000280e:    0116        ..      LSLS     r6,r2,#4
        0x00002810:    4384        .C      BICS     r4,r4,r0
        0x00002812:    0ba8        ..      LSRS     r0,r5,#14
        0x00002814:    0382        ..      LSLS     r2,r0,#14
        0x00002816:    4395        .C      BICS     r5,r5,r2
        0x00002818:    0bbb        ..      LSRS     r3,r7,#14
        0x0000281a:    039a        ..      LSLS     r2,r3,#14
        0x0000281c:    4397        .C      BICS     r7,r7,r2
        0x0000281e:    0936        6.      LSRS     r6,r6,#4
        0x00002820:    46bc        .F      MOV      r12,r7
        0x00002822:    0bb2        ..      LSRS     r2,r6,#14
        0x00002824:    0397        ..      LSLS     r7,r2,#14
        0x00002826:    43be        .C      BICS     r6,r6,r7
        0x00002828:    4607        .F      MOV      r7,r0
        0x0000282a:    4357        WC      MULS     r7,r2,r7
        0x0000282c:    9703        ..      STR      r7,[sp,#0xc]
        0x0000282e:    462f        /F      MOV      r7,r5
        0x00002830:    4377        wC      MULS     r7,r6,r7
        0x00002832:    9602        ..      STR      r6,[sp,#8]
        0x00002834:    46be        .F      MOV      lr,r7
        0x00002836:    9f02        ..      LDR      r7,[sp,#8]
        0x00002838:    1946        F.      ADDS     r6,r0,r5
        0x0000283a:    19d7        ..      ADDS     r7,r2,r7
        0x0000283c:    9606        ..      STR      r6,[sp,#0x18]
        0x0000283e:    437e        ~C      MULS     r6,r7,r6
        0x00002840:    9705        ..      STR      r7,[sp,#0x14]
        0x00002842:    9f03        ..      LDR      r7,[sp,#0xc]
        0x00002844:    1bf7        ..      SUBS     r7,r6,r7
        0x00002846:    4676        vF      MOV      r6,lr
        0x00002848:    1bbe        ..      SUBS     r6,r7,r6
        0x0000284a:    4677        wF      MOV      r7,lr
        0x0000284c:    013f        ?.      LSLS     r7,r7,#4
        0x0000284e:    9700        ..      STR      r7,[sp,#0]
        0x00002850:    9601        ..      STR      r6,[sp,#4]
        0x00002852:    9f03        ..      LDR      r7,[sp,#0xc]
        0x00002854:    0bb6        ..      LSRS     r6,r6,#14
        0x00002856:    19f6        ..      ADDS     r6,r6,r7
        0x00002858:    46b6        .F      MOV      lr,r6
        0x0000285a:    9e01        ..      LDR      r6,[sp,#4]
        0x0000285c:    9f00        ..      LDR      r7,[sp,#0]
        0x0000285e:    04b6        ..      LSLS     r6,r6,#18
        0x00002860:    19bf        ..      ADDS     r7,r7,r6
        0x00002862:    d302        ..      BCC      0x286a ; __aeabi_dmul + 186
        0x00002864:    4676        vF      MOV      r6,lr
        0x00002866:    1c76        v.      ADDS     r6,r6,#1
        0x00002868:    46b6        .F      MOV      lr,r6
        0x0000286a:    4676        vF      MOV      r6,lr
        0x0000286c:    0076        v.      LSLS     r6,r6,#1
        0x0000286e:    2f00        ./      CMP      r7,#0
        0x00002870:    d001        ..      BEQ      0x2876 ; __aeabi_dmul + 198
        0x00002872:    2701        .'      MOVS     r7,#1
        0x00002874:    433e        >C      ORRS     r6,r6,r7
        0x00002876:    4667        gF      MOV      r7,r12
        0x00002878:    437d        }C      MULS     r5,r7,r5
        0x0000287a:    46ae        .F      MOV      lr,r5
        0x0000287c:    9f02        ..      LDR      r7,[sp,#8]
        0x0000287e:    4625        %F      MOV      r5,r4
        0x00002880:    437d        }C      MULS     r5,r7,r5
        0x00002882:    9500        ..      STR      r5,[sp,#0]
        0x00002884:    006d        m.      LSLS     r5,r5,#1
        0x00002886:    19ae        ..      ADDS     r6,r5,r6
        0x00002888:    4675        uF      MOV      r5,lr
        0x0000288a:    006d        m.      LSLS     r5,r5,#1
        0x0000288c:    19af        ..      ADDS     r7,r5,r6
        0x0000288e:    4665        eF      MOV      r5,r12
        0x00002890:    195d        ].      ADDS     r5,r3,r5
        0x00002892:    9e06        ..      LDR      r6,[sp,#0x18]
        0x00002894:    9503        ..      STR      r5,[sp,#0xc]
        0x00002896:    436e        nC      MULS     r6,r5,r6
        0x00002898:    4675        uF      MOV      r5,lr
        0x0000289a:    1b75        u.      SUBS     r5,r6,r5
        0x0000289c:    46ae        .F      MOV      lr,r5
        0x0000289e:    190d        ..      ADDS     r5,r1,r4
        0x000028a0:    9e05        ..      LDR      r6,[sp,#0x14]
        0x000028a2:    9502        ..      STR      r5,[sp,#8]
        0x000028a4:    436e        nC      MULS     r6,r5,r6
        0x000028a6:    9d00        ..      LDR      r5,[sp,#0]
        0x000028a8:    4358        XC      MULS     r0,r3,r0
        0x000028aa:    1b76        v.      SUBS     r6,r6,r5
        0x000028ac:    4675        uF      MOV      r5,lr
        0x000028ae:    1a2d        -.      SUBS     r5,r5,r0
        0x000028b0:    434a        JC      MULS     r2,r1,r2
        0x000028b2:    4696        .F      MOV      lr,r2
        0x000028b4:    1ab2        ..      SUBS     r2,r6,r2
        0x000028b6:    9200        ..      STR      r2,[sp,#0]
        0x000028b8:    9501        ..      STR      r5,[sp,#4]
        0x000028ba:    06fa        ..      LSLS     r2,r7,#27
        0x000028bc:    d006        ..      BEQ      0x28cc ; __aeabi_dmul + 284
        0x000028be:    097d        }.      LSRS     r5,r7,#5
        0x000028c0:    2201        ."      MOVS     r2,#1
        0x000028c2:    e001        ..      B        0x28c8 ; __aeabi_dmul + 280
        0x000028c4:    e076        v.      B        0x29b4 ; __aeabi_dmul + 516
        0x000028c6:    e072        r.      B        0x29ae ; __aeabi_dmul + 510
        0x000028c8:    4315        .C      ORRS     r5,r5,r2
        0x000028ca:    e000        ..      B        0x28ce ; __aeabi_dmul + 286
        0x000028cc:    097d        }.      LSRS     r5,r7,#5
        0x000028ce:    0a02        ..      LSRS     r2,r0,#8
        0x000028d0:    0600        ..      LSLS     r0,r0,#24
        0x000028d2:    2700        .'      MOVS     r7,#0
        0x000028d4:    1945        E.      ADDS     r5,r0,r5
        0x000028d6:    417a        zA      ADCS     r2,r2,r7
        0x000028d8:    4676        vF      MOV      r6,lr
        0x000028da:    0a30        0.      LSRS     r0,r6,#8
        0x000028dc:    0636        6.      LSLS     r6,r6,#24
        0x000028de:    1976        v.      ADDS     r6,r6,r5
        0x000028e0:    4150        PA      ADCS     r0,r0,r2
        0x000028e2:    9a01        ..      LDR      r2,[sp,#4]
        0x000028e4:    0d95        ..      LSRS     r5,r2,#22
        0x000028e6:    0292        ..      LSLS     r2,r2,#10
        0x000028e8:    1996        ..      ADDS     r6,r2,r6
        0x000028ea:    4145        EA      ADCS     r5,r5,r0
        0x000028ec:    9800        ..      LDR      r0,[sp,#0]
        0x000028ee:    0d82        ..      LSRS     r2,r0,#22
        0x000028f0:    0280        ..      LSLS     r0,r0,#10
        0x000028f2:    1980        ..      ADDS     r0,r0,r6
        0x000028f4:    416a        jA      ADCS     r2,r2,r5
        0x000028f6:    4359        YC      MULS     r1,r3,r1
        0x000028f8:    4663        cF      MOV      r3,r12
        0x000028fa:    435c        \C      MULS     r4,r3,r4
        0x000028fc:    9d03        ..      LDR      r5,[sp,#0xc]
        0x000028fe:    9b02        ..      LDR      r3,[sp,#8]
        0x00002900:    436b        kC      MULS     r3,r5,r3
        0x00002902:    1a5b        [.      SUBS     r3,r3,r1
        0x00002904:    1b1e        ..      SUBS     r6,r3,r4
        0x00002906:    0eb3        ..      LSRS     r3,r6,#26
        0x00002908:    01b6        ..      LSLS     r6,r6,#6
        0x0000290a:    18b6        ..      ADDS     r6,r6,r2
        0x0000290c:    417b        {A      ADCS     r3,r3,r7
        0x0000290e:    0b0a        ..      LSRS     r2,r1,#12
        0x00002910:    0509        ..      LSLS     r1,r1,#20
        0x00002912:    1989        ..      ADDS     r1,r1,r6
        0x00002914:    415a        ZA      ADCS     r2,r2,r3
        0x00002916:    0a23        #.      LSRS     r3,r4,#8
        0x00002918:    0624        $.      LSLS     r4,r4,#24
        0x0000291a:    1824        $.      ADDS     r4,r4,r0
        0x0000291c:    414b        KA      ADCS     r3,r3,r1
        0x0000291e:    428b        .B      CMP      r3,r1
        0x00002920:    d200        ..      BCS      0x2924 ; __aeabi_dmul + 372
        0x00002922:    1c52        R.      ADDS     r2,r2,#1
        0x00002924:    2001        .       MOVS     r0,#1
        0x00002926:    0240        @.      LSLS     r0,r0,#9
        0x00002928:    4282        .B      CMP      r2,r0
        0x0000292a:    d303        ..      BCC      0x2934 ; __aeabi_dmul + 388
        0x0000292c:    2115        .!      MOVS     r1,#0x15
        0x0000292e:    2602        .&      MOVS     r6,#2
        0x00002930:    43f6        .C      MVNS     r6,r6
        0x00002932:    e002        ..      B        0x293a ; __aeabi_dmul + 394
        0x00002934:    2114        .!      MOVS     r1,#0x14
        0x00002936:    2603        .&      MOVS     r6,#3
        0x00002938:    43f6        .C      MVNS     r6,r6
        0x0000293a:    2020                MOVS     r0,#0x20
        0x0000293c:    1a45        E.      SUBS     r5,r0,r1
        0x0000293e:    40aa        .@      LSLS     r2,r2,r5
        0x00002940:    461f        .F      MOV      r7,r3
        0x00002942:    40af        .@      LSLS     r7,r7,r5
        0x00002944:    40cb        .@      LSRS     r3,r3,r1
        0x00002946:    4620         F      MOV      r0,r4
        0x00002948:    40c8        .@      LSRS     r0,r0,r1
        0x0000294a:    9904        ..      LDR      r1,[sp,#0x10]
        0x0000294c:    4313        .C      ORRS     r3,r3,r2
        0x0000294e:    1409        ..      ASRS     r1,r1,#16
        0x00002950:    1871        q.      ADDS     r1,r6,r1
        0x00002952:    0509        ..      LSLS     r1,r1,#20
        0x00002954:    185a        Z.      ADDS     r2,r3,r1
        0x00002956:    9904        ..      LDR      r1,[sp,#0x10]
        0x00002958:    4338        8C      ORRS     r0,r0,r7
        0x0000295a:    07c9        ..      LSLS     r1,r1,#31
        0x0000295c:    4051        Q@      EORS     r1,r1,r2
        0x0000295e:    40ac        .@      LSLS     r4,r4,r5
        0x00002960:    d009        ..      BEQ      0x2976 ; __aeabi_dmul + 454
        0x00002962:    2301        .#      MOVS     r3,#1
        0x00002964:    409c        .@      LSLS     r4,r4,r3
        0x00002966:    d306        ..      BCC      0x2976 ; __aeabi_dmul + 454
        0x00002968:    2300        .#      MOVS     r3,#0
        0x0000296a:    1c40        @.      ADDS     r0,r0,#1
        0x0000296c:    4159        YA      ADCS     r1,r1,r3
        0x0000296e:    2c00        .,      CMP      r4,#0
        0x00002970:    d101        ..      BNE      0x2976 ; __aeabi_dmul + 454
        0x00002972:    0840        @.      LSRS     r0,r0,#1
        0x00002974:    0040        @.      LSLS     r0,r0,#1
        0x00002976:    4b20         K      LDR      r3,[pc,#128] ; [0x29f8] = 0x7ff00000
        0x00002978:    2a00        .*      CMP      r2,#0
        0x0000297a:    db03        ..      BLT      0x2984 ; __aeabi_dmul + 468
        0x0000297c:    421a        .B      TST      r2,r3
        0x0000297e:    d001        ..      BEQ      0x2984 ; __aeabi_dmul + 468
        0x00002980:    438b        .C      BICS     r3,r3,r1
        0x00002982:    d112        ..      BNE      0x29aa ; __aeabi_dmul + 506
        0x00002984:    2201        ."      MOVS     r2,#1
        0x00002986:    9804        ..      LDR      r0,[sp,#0x10]
        0x00002988:    0692        ..      LSLS     r2,r2,#26
        0x0000298a:    4290        .B      CMP      r0,r2
        0x0000298c:    db07        ..      BLT      0x299e ; __aeabi_dmul + 494
        0x0000298e:    2005        .       MOVS     r0,#5
        0x00002990:    0740        @.      LSLS     r0,r0,#29
        0x00002992:    1809        ..      ADDS     r1,r1,r0
        0x00002994:    4819        .H      LDR      r0,[pc,#100] ; [0x29fc] = 0x7fffffff
        0x00002996:    4301        .C      ORRS     r1,r1,r0
        0x00002998:    12c0        ..      ASRS     r0,r0,#11
        0x0000299a:    4041        A@      EORS     r1,r1,r0
        0x0000299c:    e004        ..      B        0x29a8 ; __aeabi_dmul + 504
        0x0000299e:    2003        .       MOVS     r0,#3
        0x000029a0:    0740        @.      LSLS     r0,r0,#29
        0x000029a2:    1808        ..      ADDS     r0,r1,r0
        0x000029a4:    0fc1        ..      LSRS     r1,r0,#31
        0x000029a6:    07c9        ..      LSLS     r1,r1,#31
        0x000029a8:    2000        .       MOVS     r0,#0
        0x000029aa:    b007        ..      ADD      sp,sp,#0x1c
        0x000029ac:    bdf0        ..      POP      {r4-r7,pc}
        0x000029ae:    2000        .       MOVS     r0,#0
        0x000029b0:    07e9        ..      LSLS     r1,r5,#31
        0x000029b2:    e7fa        ..      B        0x29aa ; __aeabi_dmul + 506
        0x000029b4:    1806        ..      ADDS     r6,r0,r0
        0x000029b6:    460c        .F      MOV      r4,r1
        0x000029b8:    414c        LA      ADCS     r4,r4,r1
        0x000029ba:    4811        .H      LDR      r0,[pc,#68] ; [0x2a00] = 0xffe00000
        0x000029bc:    4276        vB      RSBS     r6,r6,#0
        0x000029be:    41a0        .A      SBCS     r0,r0,r4
        0x000029c0:    d314        ..      BCC      0x29ec ; __aeabi_dmul + 572
        0x000029c2:    1894        ..      ADDS     r4,r2,r2
        0x000029c4:    461a        .F      MOV      r2,r3
        0x000029c6:    415a        ZA      ADCS     r2,r2,r3
        0x000029c8:    480d        .H      LDR      r0,[pc,#52] ; [0x2a00] = 0xffe00000
        0x000029ca:    4264        dB      RSBS     r4,r4,#0
        0x000029cc:    4190        .A      SBCS     r0,r0,r2
        0x000029ce:    d30d        ..      BCC      0x29ec ; __aeabi_dmul + 572
        0x000029d0:    2001        .       MOVS     r0,#1
        0x000029d2:    0049        I.      LSLS     r1,r1,#1
        0x000029d4:    0540        @.      LSLS     r0,r0,#21
        0x000029d6:    4281        .B      CMP      r1,r0
        0x000029d8:    d308        ..      BCC      0x29ec ; __aeabi_dmul + 572
        0x000029da:    0059        Y.      LSLS     r1,r3,#1
        0x000029dc:    4281        .B      CMP      r1,r0
        0x000029de:    d305        ..      BCC      0x29ec ; __aeabi_dmul + 572
        0x000029e0:    0fe9        ..      LSRS     r1,r5,#31
        0x000029e2:    4a05        .J      LDR      r2,[pc,#20] ; [0x29f8] = 0x7ff00000
        0x000029e4:    07c9        ..      LSLS     r1,r1,#31
        0x000029e6:    2000        .       MOVS     r0,#0
        0x000029e8:    4311        .C      ORRS     r1,r1,r2
        0x000029ea:    e7de        ..      B        0x29aa ; __aeabi_dmul + 506
        0x000029ec:    2000        .       MOVS     r0,#0
        0x000029ee:    4905        .I      LDR      r1,[pc,#20] ; [0x2a04] = 0x7ff80000
        0x000029f0:    e7db        ..      B        0x29aa ; __aeabi_dmul + 506
    $d
        0x000029f2:    0000        ..      DCW    0
        0x000029f4:    07ff0000    ....    DCD    134152192
        0x000029f8:    7ff00000    ....    DCD    2146435072
        0x000029fc:    7fffffff    ....    DCD    2147483647
        0x00002a00:    ffe00000    ....    DCD    4292870144
        0x00002a04:    7ff80000    ....    DCD    2146959360
    $t
    .text
    __aeabi_f2d
    _f2d
        0x00002a08:    2101        .!      MOVS     r1,#1
        0x00002a0a:    05c9        ..      LSLS     r1,r1,#23
        0x00002a0c:    2301        .#      MOVS     r3,#1
        0x00002a0e:    1841        A.      ADDS     r1,r0,r1
        0x00002a10:    0042        B.      LSLS     r2,r0,#1
        0x00002a12:    061b        ..      LSLS     r3,r3,#24
        0x00002a14:    18d3        ..      ADDS     r3,r2,r3
        0x00002a16:    0e5b        [.      LSRS     r3,r3,#25
        0x00002a18:    d00b        ..      BEQ      0x2a32 ; __aeabi_f2d + 42
        0x00002a1a:    10c1        ..      ASRS     r1,r0,#3
        0x00002a1c:    2207        ."      MOVS     r2,#7
        0x00002a1e:    06d2        ..      LSLS     r2,r2,#27
        0x00002a20:    1889        ..      ADDS     r1,r1,r2
        0x00002a22:    0740        @.      LSLS     r0,r0,#29
        0x00002a24:    4252        RB      RSBS     r2,r2,#0
        0x00002a26:    188a        ..      ADDS     r2,r1,r2
        0x00002a28:    d502        ..      BPL      0x2a30 ; __aeabi_f2d + 40
        0x00002a2a:    2209        ."      MOVS     r2,#9
        0x00002a2c:    0712        ..      LSLS     r2,r2,#28
        0x00002a2e:    1889        ..      ADDS     r1,r1,r2
        0x00002a30:    4770        pG      BX       lr
        0x00002a32:    0209        ..      LSLS     r1,r1,#8
        0x00002a34:    d508        ..      BPL      0x2a48 ; __aeabi_f2d + 64
        0x00002a36:    4601        .F      MOV      r1,r0
        0x00002a38:    2a00        .*      CMP      r2,#0
        0x00002a3a:    d003        ..      BEQ      0x2a44 ; __aeabi_f2d + 60
        0x00002a3c:    0fc1        ..      LSRS     r1,r0,#31
        0x00002a3e:    07c9        ..      LSLS     r1,r1,#31
        0x00002a40:    2000        .       MOVS     r0,#0
        0x00002a42:    4770        pG      BX       lr
        0x00002a44:    4610        .F      MOV      r0,r2
        0x00002a46:    4770        pG      BX       lr
        0x00002a48:    0242        B.      LSLS     r2,r0,#9
        0x00002a4a:    d002        ..      BEQ      0x2a52 ; __aeabi_f2d + 74
        0x00002a4c:    2000        .       MOVS     r0,#0
        0x00002a4e:    4903        .I      LDR      r1,[pc,#12] ; [0x2a5c] = 0x7ff80000
        0x00002a50:    4770        pG      BX       lr
        0x00002a52:    2107        .!      MOVS     r1,#7
        0x00002a54:    0509        ..      LSLS     r1,r1,#20
        0x00002a56:    4301        .C      ORRS     r1,r1,r0
        0x00002a58:    e7f4        ..      B        0x2a44 ; __aeabi_f2d + 60
    $d
        0x00002a5a:    0000        ..      DCW    0
        0x00002a5c:    7ff80000    ....    DCD    2146959360
    $t
    .text
    __aeabi_fdiv
    _fdiv
        0x00002a60:    b570        p.      PUSH     {r4-r6,lr}
        0x00002a62:    24ff        .$      MOVS     r4,#0xff
        0x00002a64:    0424        $.      LSLS     r4,r4,#16
        0x00002a66:    09c6        ..      LSRS     r6,r0,#7
        0x00002a68:    25ff        .%      MOVS     r5,#0xff
        0x00002a6a:    4026        &@      ANDS     r6,r6,r4
        0x00002a6c:    3501        .5      ADDS     r5,#1
        0x00002a6e:    432e        .C      ORRS     r6,r6,r5
        0x00002a70:    09c2        ..      LSRS     r2,r0,#7
        0x00002a72:    09cb        ..      LSRS     r3,r1,#7
        0x00002a74:    4605        .F      MOV      r5,r0
        0x00002a76:    4022        "@      ANDS     r2,r2,r4
        0x00002a78:    4023        #@      ANDS     r3,r3,r4
        0x00002a7a:    404d        M@      EORS     r5,r5,r1
        0x00002a7c:    2a00        .*      CMP      r2,#0
        0x00002a7e:    d06b        k.      BEQ      0x2b58 ; __aeabi_fdiv + 248
        0x00002a80:    2b00        .+      CMP      r3,#0
        0x00002a82:    d069        i.      BEQ      0x2b58 ; __aeabi_fdiv + 248
        0x00002a84:    42a2        .B      CMP      r2,r4
        0x00002a86:    d067        g.      BEQ      0x2b58 ; __aeabi_fdiv + 248
        0x00002a88:    42a3        .B      CMP      r3,r4
        0x00002a8a:    d065        e.      BEQ      0x2b58 ; __aeabi_fdiv + 248
        0x00002a8c:    2d00        .-      CMP      r5,#0
        0x00002a8e:    da00        ..      BGE      0x2a92 ; __aeabi_fdiv + 50
        0x00002a90:    4632        2F      MOV      r2,r6
        0x00002a92:    2401        .$      MOVS     r4,#1
        0x00002a94:    05e4        ..      LSLS     r4,r4,#23
        0x00002a96:    4321        !C      ORRS     r1,r1,r4
        0x00002a98:    4320         C      ORRS     r0,r0,r4
        0x00002a9a:    0209        ..      LSLS     r1,r1,#8
        0x00002a9c:    0200        ..      LSLS     r0,r0,#8
        0x00002a9e:    0a09        ..      LSRS     r1,r1,#8
        0x00002aa0:    1ad2        ..      SUBS     r2,r2,r3
        0x00002aa2:    0a00        ..      LSRS     r0,r0,#8
        0x00002aa4:    0c4b        K.      LSRS     r3,r1,#17
        0x00002aa6:    247f        .$      MOVS     r4,#0x7f
        0x00002aa8:    1ae3        ..      SUBS     r3,r4,r3
        0x00002aaa:    4c43        CL      LDR      r4,[pc,#268] ; [0x2bb8] = 0x1624
        0x00002aac:    447c        |D      ADD      r4,r4,pc
        0x00002aae:    5ce3        .\      LDRB     r3,[r4,r3]
        0x00002ab0:    247d        }$      MOVS     r4,#0x7d
        0x00002ab2:    0424        $.      LSLS     r4,r4,#16
        0x00002ab4:    1912        ..      ADDS     r2,r2,r4
        0x00002ab6:    1414        ..      ASRS     r4,r2,#16
        0x00002ab8:    005b        [.      LSLS     r3,r3,#1
        0x00002aba:    18a2        ..      ADDS     r2,r4,r2
        0x00002abc:    4288        .B      CMP      r0,r1
        0x00002abe:    d301        ..      BCC      0x2ac4 ; __aeabi_fdiv + 100
        0x00002ac0:    1c52        R.      ADDS     r2,r2,#1
        0x00002ac2:    e000        ..      B        0x2ac6 ; __aeabi_fdiv + 102
        0x00002ac4:    0040        @.      LSLS     r0,r0,#1
        0x00002ac6:    4249        IB      RSBS     r1,r1,#0
        0x00002ac8:    460c        .F      MOV      r4,r1
        0x00002aca:    435c        \C      MULS     r4,r3,r4
        0x00002acc:    1124        $.      ASRS     r4,r4,#4
        0x00002ace:    435c        \C      MULS     r4,r3,r4
        0x00002ad0:    01db        ..      LSLS     r3,r3,#7
        0x00002ad2:    1564        d.      ASRS     r4,r4,#21
        0x00002ad4:    18e3        ..      ADDS     r3,r4,r3
        0x00002ad6:    0a04        ..      LSRS     r4,r0,#8
        0x00002ad8:    435c        \C      MULS     r4,r3,r4
        0x00002ada:    02c5        ..      LSLS     r5,r0,#11
        0x00002adc:    0d20         .      LSRS     r0,r4,#20
        0x00002ade:    460c        .F      MOV      r4,r1
        0x00002ae0:    4344        DC      MULS     r4,r0,r4
        0x00002ae2:    1964        d.      ADDS     r4,r4,r5
        0x00002ae4:    0a25        %.      LSRS     r5,r4,#8
        0x00002ae6:    435d        ]C      MULS     r5,r3,r5
        0x00002ae8:    0323        #.      LSLS     r3,r4,#12
        0x00002aea:    0cec        ..      LSRS     r4,r5,#19
        0x00002aec:    460d        .F      MOV      r5,r1
        0x00002aee:    4365        eC      MULS     r5,r4,r5
        0x00002af0:    0300        ..      LSLS     r0,r0,#12
        0x00002af2:    1900        ..      ADDS     r0,r0,r4
        0x00002af4:    18eb        ..      ADDS     r3,r5,r3
        0x00002af6:    424c        LB      RSBS     r4,r1,#0
        0x00002af8:    42a3        .B      CMP      r3,r4
        0x00002afa:    d301        ..      BCC      0x2b00 ; __aeabi_fdiv + 160
        0x00002afc:    185b        [.      ADDS     r3,r3,r1
        0x00002afe:    1c40        @.      ADDS     r0,r0,#1
        0x00002b00:    05d4        ..      LSLS     r4,r2,#23
        0x00002b02:    1820         .      ADDS     r0,r4,r0
        0x00002b04:    2b00        .+      CMP      r3,#0
        0x00002b06:    d007        ..      BEQ      0x2b18 ; __aeabi_fdiv + 184
        0x00002b08:    005b        [.      LSLS     r3,r3,#1
        0x00002b0a:    18c9        ..      ADDS     r1,r1,r3
        0x00002b0c:    d304        ..      BCC      0x2b18 ; __aeabi_fdiv + 184
        0x00002b0e:    1c40        @.      ADDS     r0,r0,#1
        0x00002b10:    2900        .)      CMP      r1,#0
        0x00002b12:    d101        ..      BNE      0x2b18 ; __aeabi_fdiv + 184
        0x00002b14:    0840        @.      LSRS     r0,r0,#1
        0x00002b16:    0040        @.      LSLS     r0,r0,#1
        0x00002b18:    213f        ?!      MOVS     r1,#0x3f
        0x00002b1a:    0489        ..      LSLS     r1,r1,#18
        0x00002b1c:    428a        .B      CMP      r2,r1
        0x00002b1e:    d309        ..      BCC      0x2b34 ; __aeabi_fdiv + 212
        0x00002b20:    2a00        .*      CMP      r2,#0
        0x00002b22:    dc08        ..      BGT      0x2b36 ; __aeabi_fdiv + 214
        0x00002b24:    0611        ..      LSLS     r1,r2,#24
        0x00002b26:    0f09        ..      LSRS     r1,r1,#28
        0x00002b28:    d004        ..      BEQ      0x2b34 ; __aeabi_fdiv + 212
        0x00002b2a:    2103        .!      MOVS     r1,#3
        0x00002b2c:    0749        I.      LSLS     r1,r1,#29
        0x00002b2e:    1840        @.      ADDS     r0,r0,r1
        0x00002b30:    0fc0        ..      LSRS     r0,r0,#31
        0x00002b32:    07c0        ..      LSLS     r0,r0,#31
        0x00002b34:    bd70        p.      POP      {r4-r6,pc}
        0x00002b36:    2201        ."      MOVS     r2,#1
        0x00002b38:    0041        A.      LSLS     r1,r0,#1
        0x00002b3a:    0612        ..      LSLS     r2,r2,#24
        0x00002b3c:    1889        ..      ADDS     r1,r1,r2
        0x00002b3e:    227f        ."      MOVS     r2,#0x7f
        0x00002b40:    0652        R.      LSLS     r2,r2,#25
        0x00002b42:    4291        .B      CMP      r1,r2
        0x00002b44:    d2f6        ..      BCS      0x2b34 ; __aeabi_fdiv + 212
        0x00002b46:    2105        .!      MOVS     r1,#5
        0x00002b48:    0749        I.      LSLS     r1,r1,#29
        0x00002b4a:    1840        @.      ADDS     r0,r0,r1
        0x00002b4c:    d501        ..      BPL      0x2b52 ; __aeabi_fdiv + 242
        0x00002b4e:    1090        ..      ASRS     r0,r2,#2
        0x00002b50:    bd70        p.      POP      {r4-r6,pc}
        0x00002b52:    20ff        .       MOVS     r0,#0xff
        0x00002b54:    05c0        ..      LSLS     r0,r0,#23
        0x00002b56:    bd70        p.      POP      {r4-r6,pc}
        0x00002b58:    2d00        .-      CMP      r5,#0
        0x00002b5a:    da00        ..      BGE      0x2b5e ; __aeabi_fdiv + 254
        0x00002b5c:    4632        2F      MOV      r2,r6
        0x00002b5e:    4e17        .N      LDR      r6,[pc,#92] ; [0x2bbc] = 0x7fc00000
        0x00002b60:    42a2        .B      CMP      r2,r4
        0x00002b62:    d207        ..      BCS      0x2b74 ; __aeabi_fdiv + 276
        0x00002b64:    42a3        .B      CMP      r3,r4
        0x00002b66:    d205        ..      BCS      0x2b74 ; __aeabi_fdiv + 276
        0x00002b68:    0218        ..      LSLS     r0,r3,#8
        0x00002b6a:    0e00        ..      LSRS     r0,r0,#24
        0x00002b6c:    d017        ..      BEQ      0x2b9e ; __aeabi_fdiv + 318
        0x00002b6e:    0fe8        ..      LSRS     r0,r5,#31
        0x00002b70:    07c0        ..      LSLS     r0,r0,#31
        0x00002b72:    bd70        p.      POP      {r4-r6,pc}
        0x00002b74:    24ff        .$      MOVS     r4,#0xff
        0x00002b76:    0043        C.      LSLS     r3,r0,#1
        0x00002b78:    0624        $.      LSLS     r4,r4,#24
        0x00002b7a:    42a3        .B      CMP      r3,r4
        0x00002b7c:    d816        ..      BHI      0x2bac ; __aeabi_fdiv + 332
        0x00002b7e:    0049        I.      LSLS     r1,r1,#1
        0x00002b80:    42a1        .B      CMP      r1,r4
        0x00002b82:    d813        ..      BHI      0x2bac ; __aeabi_fdiv + 332
        0x00002b84:    42a3        .B      CMP      r3,r4
        0x00002b86:    d101        ..      BNE      0x2b8c ; __aeabi_fdiv + 300
        0x00002b88:    42a1        .B      CMP      r1,r4
        0x00002b8a:    d00f        ..      BEQ      0x2bac ; __aeabi_fdiv + 332
        0x00002b8c:    42a1        .B      CMP      r1,r4
        0x00002b8e:    d101        ..      BNE      0x2b94 ; __aeabi_fdiv + 308
        0x00002b90:    2100        .!      MOVS     r1,#0
        0x00002b92:    e001        ..      B        0x2b98 ; __aeabi_fdiv + 312
        0x00002b94:    0041        A.      LSLS     r1,r0,#1
        0x00002b96:    0849        I.      LSRS     r1,r1,#1
        0x00002b98:    05d0        ..      LSLS     r0,r2,#23
        0x00002b9a:    4308        .C      ORRS     r0,r0,r1
        0x00002b9c:    bd70        p.      POP      {r4-r6,pc}
        0x00002b9e:    0210        ..      LSLS     r0,r2,#8
        0x00002ba0:    0e00        ..      LSRS     r0,r0,#24
        0x00002ba2:    d003        ..      BEQ      0x2bac ; __aeabi_fdiv + 332
        0x00002ba4:    20ff        .       MOVS     r0,#0xff
        0x00002ba6:    4302        .C      ORRS     r2,r2,r0
        0x00002ba8:    05d0        ..      LSLS     r0,r2,#23
        0x00002baa:    bd70        p.      POP      {r4-r6,pc}
        0x00002bac:    4630        0F      MOV      r0,r6
        0x00002bae:    bd70        p.      POP      {r4-r6,pc}
    _frdiv
        0x00002bb0:    4048        H@      EORS     r0,r0,r1
        0x00002bb2:    4041        A@      EORS     r1,r1,r0
        0x00002bb4:    4048        H@      EORS     r0,r0,r1
        0x00002bb6:    e753        S.      B        __aeabi_fdiv ; 0x2a60
    $d
        0x00002bb8:    00001624    $...    DCD    5668
        0x00002bbc:    7fc00000    ....    DCD    2143289344
    $t
    .text
    __aeabi_i2f_normalise
        0x00002bc0:    221f        ."      MOVS     r2,#0x1f
        0x00002bc2:    0c03        ..      LSRS     r3,r0,#16
        0x00002bc4:    d102        ..      BNE      0x2bcc ; __aeabi_i2f_normalise + 12
        0x00002bc6:    220f        ."      MOVS     r2,#0xf
        0x00002bc8:    0400        ..      LSLS     r0,r0,#16
        0x00002bca:    d01c        ..      BEQ      0x2c06 ; __aeabi_i2f_normalise + 70
        0x00002bcc:    0e03        ..      LSRS     r3,r0,#24
        0x00002bce:    d101        ..      BNE      0x2bd4 ; __aeabi_i2f_normalise + 20
        0x00002bd0:    3a08        .:      SUBS     r2,r2,#8
        0x00002bd2:    0200        ..      LSLS     r0,r0,#8
        0x00002bd4:    0f03        ..      LSRS     r3,r0,#28
        0x00002bd6:    d101        ..      BNE      0x2bdc ; __aeabi_i2f_normalise + 28
        0x00002bd8:    1f12        ..      SUBS     r2,r2,#4
        0x00002bda:    0100        ..      LSLS     r0,r0,#4
        0x00002bdc:    0f83        ..      LSRS     r3,r0,#30
        0x00002bde:    d101        ..      BNE      0x2be4 ; __aeabi_i2f_normalise + 36
        0x00002be0:    1e92        ..      SUBS     r2,r2,#2
        0x00002be2:    0080        ..      LSLS     r0,r0,#2
        0x00002be4:    2800        .(      CMP      r0,#0
        0x00002be6:    db01        ..      BLT      0x2bec ; __aeabi_i2f_normalise + 44
        0x00002be8:    1e52        R.      SUBS     r2,r2,#1
        0x00002bea:    0040        @.      LSLS     r0,r0,#1
        0x00002bec:    05d2        ..      LSLS     r2,r2,#23
        0x00002bee:    1851        Q.      ADDS     r1,r2,r1
        0x00002bf0:    1202        ..      ASRS     r2,r0,#8
        0x00002bf2:    1851        Q.      ADDS     r1,r2,r1
        0x00002bf4:    2219        ."      MOVS     r2,#0x19
        0x00002bf6:    4090        .@      LSLS     r0,r0,r2
        0x00002bf8:    d304        ..      BCC      0x2c04 ; __aeabi_i2f_normalise + 68
        0x00002bfa:    1c49        I.      ADDS     r1,r1,#1
        0x00002bfc:    2800        .(      CMP      r0,#0
        0x00002bfe:    d101        ..      BNE      0x2c04 ; __aeabi_i2f_normalise + 68
        0x00002c00:    0849        I.      LSRS     r1,r1,#1
        0x00002c02:    0049        I.      LSLS     r1,r1,#1
        0x00002c04:    4608        .F      MOV      r0,r1
        0x00002c06:    4770        pG      BX       lr
    __aeabi_i2f
    _fflt
        0x00002c08:    0fc1        ..      LSRS     r1,r0,#31
        0x00002c0a:    07c9        ..      LSLS     r1,r1,#31
        0x00002c0c:    d000        ..      BEQ      0x2c10 ; __aeabi_i2f + 8
        0x00002c0e:    4240        @B      RSBS     r0,r0,#0
        0x00002c10:    2201        ."      MOVS     r2,#1
        0x00002c12:    0792        ..      LSLS     r2,r2,#30
        0x00002c14:    4311        .C      ORRS     r1,r1,r2
        0x00002c16:    e7d3        ..      B        __aeabi_i2f_normalise ; 0x2bc0
    __aeabi_ui2f
    _ffltu
        0x00002c18:    2101        .!      MOVS     r1,#1
        0x00002c1a:    0789        ..      LSLS     r1,r1,#30
        0x00002c1c:    e7d0        ..      B        __aeabi_i2f_normalise ; 0x2bc0
    .text
    _printf_int_common
        0x00002c1e:    b5ff        ..      PUSH     {r0-r7,lr}
        0x00002c20:    4604        .F      MOV      r4,r0
        0x00002c22:    460d        .F      MOV      r5,r1
        0x00002c24:    b081        ..      SUB      sp,sp,#4
        0x00002c26:    3024        $0      ADDS     r0,r0,#0x24
        0x00002c28:    9000        ..      STR      r0,[sp,#0]
        0x00002c2a:    6821        !h      LDR      r1,[r4,#0]
        0x00002c2c:    0688        ..      LSLS     r0,r1,#26
        0x00002c2e:    d504        ..      BPL      0x2c3a ; _printf_int_common + 28
        0x00002c30:    2210        ."      MOVS     r2,#0x10
        0x00002c32:    69e0        .i      LDR      r0,[r4,#0x1c]
        0x00002c34:    4391        .C      BICS     r1,r1,r2
        0x00002c36:    6021        !`      STR      r1,[r4,#0]
        0x00002c38:    e000        ..      B        0x2c3c ; _printf_int_common + 30
        0x00002c3a:    2001        .       MOVS     r0,#1
        0x00002c3c:    42a8        .B      CMP      r0,r5
        0x00002c3e:    dd01        ..      BLE      0x2c44 ; _printf_int_common + 38
        0x00002c40:    1b47        G.      SUBS     r7,r0,r5
        0x00002c42:    e000        ..      B        0x2c46 ; _printf_int_common + 40
        0x00002c44:    2700        .'      MOVS     r7,#0
        0x00002c46:    9804        ..      LDR      r0,[sp,#0x10]
        0x00002c48:    69a1        .i      LDR      r1,[r4,#0x18]
        0x00002c4a:    197a        z.      ADDS     r2,r7,r5
        0x00002c4c:    1810        ..      ADDS     r0,r2,r0
        0x00002c4e:    1a08        ..      SUBS     r0,r1,r0
        0x00002c50:    61a0        .a      STR      r0,[r4,#0x18]
        0x00002c52:    7820         x      LDRB     r0,[r4,#0]
        0x00002c54:    06c0        ..      LSLS     r0,r0,#27
        0x00002c56:    d402        ..      BMI      0x2c5e ; _printf_int_common + 64
        0x00002c58:    4620         F      MOV      r0,r4
        0x00002c5a:    46c0        .F      MOV      r8,r8
        0x00002c5c:    46c0        .F      MOV      r8,r8
        0x00002c5e:    2600        .&      MOVS     r6,#0
        0x00002c60:    e008        ..      B        0x2c74 ; _printf_int_common + 86
        0x00002c62:    9803        ..      LDR      r0,[sp,#0xc]
        0x00002c64:    6862        bh      LDR      r2,[r4,#4]
        0x00002c66:    68a1        .h      LDR      r1,[r4,#8]
        0x00002c68:    5d80        .]      LDRB     r0,[r0,r6]
        0x00002c6a:    4790        .G      BLX      r2
        0x00002c6c:    6a20         j      LDR      r0,[r4,#0x20]
        0x00002c6e:    1c40        @.      ADDS     r0,r0,#1
        0x00002c70:    1c76        v.      ADDS     r6,r6,#1
        0x00002c72:    6220         b      STR      r0,[r4,#0x20]
        0x00002c74:    9804        ..      LDR      r0,[sp,#0x10]
        0x00002c76:    4286        .B      CMP      r6,r0
        0x00002c78:    dbf3        ..      BLT      0x2c62 ; _printf_int_common + 68
        0x00002c7a:    7820         x      LDRB     r0,[r4,#0]
        0x00002c7c:    06c0        ..      LSLS     r0,r0,#27
        0x00002c7e:    d50a        ..      BPL      0x2c96 ; _printf_int_common + 120
        0x00002c80:    4620         F      MOV      r0,r4
        0x00002c82:    46c0        .F      MOV      r8,r8
        0x00002c84:    46c0        .F      MOV      r8,r8
        0x00002c86:    e006        ..      B        0x2c96 ; _printf_int_common + 120
        0x00002c88:    6862        bh      LDR      r2,[r4,#4]
        0x00002c8a:    68a1        .h      LDR      r1,[r4,#8]
        0x00002c8c:    2030        0       MOVS     r0,#0x30
        0x00002c8e:    4790        .G      BLX      r2
        0x00002c90:    6a20         j      LDR      r0,[r4,#0x20]
        0x00002c92:    1c40        @.      ADDS     r0,r0,#1
        0x00002c94:    6220         b      STR      r0,[r4,#0x20]
        0x00002c96:    4638        8F      MOV      r0,r7
        0x00002c98:    1e7f        ..      SUBS     r7,r7,#1
        0x00002c9a:    2800        .(      CMP      r0,#0
        0x00002c9c:    dcf4        ..      BGT      0x2c88 ; _printf_int_common + 106
        0x00002c9e:    e007        ..      B        0x2cb0 ; _printf_int_common + 146
        0x00002ca0:    9800        ..      LDR      r0,[sp,#0]
        0x00002ca2:    6862        bh      LDR      r2,[r4,#4]
        0x00002ca4:    68a1        .h      LDR      r1,[r4,#8]
        0x00002ca6:    5d40        @]      LDRB     r0,[r0,r5]
        0x00002ca8:    4790        .G      BLX      r2
        0x00002caa:    6a20         j      LDR      r0,[r4,#0x20]
        0x00002cac:    1c40        @.      ADDS     r0,r0,#1
        0x00002cae:    6220         b      STR      r0,[r4,#0x20]
        0x00002cb0:    4628        (F      MOV      r0,r5
        0x00002cb2:    1e6d        m.      SUBS     r5,r5,#1
        0x00002cb4:    2800        .(      CMP      r0,#0
        0x00002cb6:    dcf3        ..      BGT      0x2ca0 ; _printf_int_common + 130
        0x00002cb8:    4620         F      MOV      r0,r4
        0x00002cba:    46c0        .F      MOV      r8,r8
        0x00002cbc:    46c0        .F      MOV      r8,r8
        0x00002cbe:    7820         x      LDRB     r0,[r4,#0]
        0x00002cc0:    0600        ..      LSLS     r0,r0,#24
        0x00002cc2:    d502        ..      BPL      0x2cca ; _printf_int_common + 172
        0x00002cc4:    2002        .       MOVS     r0,#2
        0x00002cc6:    b005        ..      ADD      sp,sp,#0x14
        0x00002cc8:    bdf0        ..      POP      {r4-r7,pc}
        0x00002cca:    2001        .       MOVS     r0,#1
        0x00002ccc:    e7fb        ..      B        0x2cc6 ; _printf_int_common + 168
        0x00002cce:    0000        ..      MOVS     r0,r0
    .text
    __lib_sel_fp_printf
        0x00002cd0:    4770        pG      BX       lr
    _fp_digits
        0x00002cd2:    b5ff        ..      PUSH     {r0-r7,lr}
        0x00002cd4:    460c        .F      MOV      r4,r1
        0x00002cd6:    461e        .F      MOV      r6,r3
        0x00002cd8:    b08f        ..      SUB      sp,sp,#0x3c
        0x00002cda:    ca03        ..      LDM      r2!,{r0,r1}
        0x00002cdc:    9008        ..      STR      r0,[sp,#0x20]
        0x00002cde:    9109        ..      STR      r1,[sp,#0x24]
        0x00002ce0:    004f        O.      LSLS     r7,r1,#1
        0x00002ce2:    0d7d        }.      LSRS     r5,r7,#21
        0x00002ce4:    d100        ..      BNE      0x2ce8 ; _fp_digits + 22
        0x00002ce6:    1e6d        m.      SUBS     r5,r5,#1
        0x00002ce8:    2100        .!      MOVS     r1,#0
        0x00002cea:    4608        .F      MOV      r0,r1
        0x00002cec:    2000        .       MOVS     r0,#0
        0x00002cee:    46c0        .F      MOV      r8,r8
        0x00002cf0:    2103        .!      MOVS     r1,#3
        0x00002cf2:    9a09        ..      LDR      r2,[sp,#0x24]
        0x00002cf4:    0589        ..      LSLS     r1,r1,#22
        0x00002cf6:    4008        .@      ANDS     r0,r0,r1
        0x00002cf8:    2a00        .*      CMP      r2,#0
        0x00002cfa:    da03        ..      BGE      0x2d04 ; _fp_digits + 50
        0x00002cfc:    0082        ..      LSLS     r2,r0,#2
        0x00002cfe:    1880        ..      ADDS     r0,r0,r2
        0x00002d00:    0840        @.      LSRS     r0,r0,#1
        0x00002d02:    4008        .@      ANDS     r0,r0,r1
        0x00002d04:    0d80        ..      LSRS     r0,r0,#22
        0x00002d06:    2801        .(      CMP      r0,#1
        0x00002d08:    900a        ..      STR      r0,[sp,#0x28]
        0x00002d0a:    dd02        ..      BLE      0x2d12 ; _fp_digits + 64
        0x00002d0c:    2000        .       MOVS     r0,#0
        0x00002d0e:    43c0        .C      MVNS     r0,r0
        0x00002d10:    900a        ..      STR      r0,[sp,#0x28]
        0x00002d12:    9808        ..      LDR      r0,[sp,#0x20]
        0x00002d14:    4307        .C      ORRS     r7,r7,r0
        0x00002d16:    d00d        ..      BEQ      0x2d34 ; _fp_digits + 98
        0x00002d18:    48ef        .H      LDR      r0,[pc,#956] ; [0x30d8] = 0xfffffc01
        0x00002d1a:    49f0        .I      LDR      r1,[pc,#960] ; [0x30dc] = 0x4d10
        0x00002d1c:    1828        (.      ADDS     r0,r5,r0
        0x00002d1e:    4348        HC      MULS     r0,r1,r0
        0x00002d20:    1407        ..      ASRS     r7,r0,#16
        0x00002d22:    9818        ..      LDR      r0,[sp,#0x60]
        0x00002d24:    2800        .(      CMP      r0,#0
        0x00002d26:    d01d        ..      BEQ      0x2d64 ; _fp_digits + 146
        0x00002d28:    4275        uB      RSBS     r5,r6,#0
        0x00002d2a:    1e29        ).      SUBS     r1,r5,#0
        0x00002d2c:    dd1d        ..      BLE      0x2d6a ; _fp_digits + 152
        0x00002d2e:    980a        ..      LDR      r0,[sp,#0x28]
        0x00002d30:    4242        BB      RSBS     r2,r0,#0
        0x00002d32:    e01b        ..      B        0x2d6c ; _fp_digits + 154
        0x00002d34:    9818        ..      LDR      r0,[sp,#0x60]
        0x00002d36:    2801        .(      CMP      r0,#1
        0x00002d38:    d002        ..      BEQ      0x2d40 ; _fp_digits + 110
        0x00002d3a:    2000        .       MOVS     r0,#0
        0x00002d3c:    2130        0!      MOVS     r1,#0x30
        0x00002d3e:    e004        ..      B        0x2d4a ; _fp_digits + 120
        0x00002d40:    2000        .       MOVS     r0,#0
        0x00002d42:    43f2        .C      MVNS     r2,r6
        0x00002d44:    e005        ..      B        0x2d52 ; _fp_digits + 128
        0x00002d46:    5421        !T      STRB     r1,[r4,r0]
        0x00002d48:    1c40        @.      ADDS     r0,r0,#1
        0x00002d4a:    42b0        .B      CMP      r0,r6
        0x00002d4c:    dbfb        ..      BLT      0x2d46 ; _fp_digits + 116
        0x00002d4e:    4630        0F      MOV      r0,r6
        0x00002d50:    2200        ."      MOVS     r2,#0
        0x00002d52:    9b18        ..      LDR      r3,[sp,#0x60]
        0x00002d54:    2100        .!      MOVS     r1,#0
        0x00002d56:    5421        !T      STRB     r1,[r4,r0]
        0x00002d58:    990f        ..      LDR      r1,[sp,#0x3c]
        0x00002d5a:    608b        .`      STR      r3,[r1,#8]
        0x00002d5c:    600a        .`      STR      r2,[r1,#0]
        0x00002d5e:    6048        H`      STR      r0,[r1,#4]
        0x00002d60:    b013        ..      ADD      sp,sp,#0x4c
        0x00002d62:    bdf0        ..      POP      {r4-r7,pc}
        0x00002d64:    1bbd        ..      SUBS     r5,r7,r6
        0x00002d66:    1c6d        m.      ADDS     r5,r5,#1
        0x00002d68:    e7df        ..      B        0x2d2a ; _fp_digits + 88
        0x00002d6a:    9a0a        ..      LDR      r2,[sp,#0x28]
        0x00002d6c:    2900        .)      CMP      r1,#0
        0x00002d6e:    da00        ..      BGE      0x2d72 ; _fp_digits + 160
        0x00002d70:    4269        iB      RSBS     r1,r5,#0
        0x00002d72:    a80b        ..      ADD      r0,sp,#0x2c
        0x00002d74:    f000fa7c    ..|.    BL       _btod_etento ; 0x3270
        0x00002d78:    a80b        ..      ADD      r0,sp,#0x2c
        0x00002d7a:    ab03        ..      ADD      r3,sp,#0xc
        0x00002d7c:    c807        ..      LDM      r0,{r0-r2}
        0x00002d7e:    c307        ..      STM      r3!,{r0-r2}
        0x00002d80:    9908        ..      LDR      r1,[sp,#0x20]
        0x00002d82:    9809        ..      LDR      r0,[sp,#0x24]
        0x00002d84:    f000fada    ....    BL       _btod_d2e ; 0x333c
        0x00002d88:    9101        ..      STR      r1,[sp,#4]
        0x00002d8a:    4601        .F      MOV      r1,r0
        0x00002d8c:    48d4        .H      LDR      r0,[pc,#848] ; [0x30e0] = 0xffffdfe1
        0x00002d8e:    9202        ..      STR      r2,[sp,#8]
        0x00002d90:    1809        ..      ADDS     r1,r1,r0
        0x00002d92:    2d00        .-      CMP      r5,#0
        0x00002d94:    9100        ..      STR      r1,[sp,#0]
        0x00002d96:    dd0a        ..      BLE      0x2dae ; _fp_digits + 220
        0x00002d98:    49d1        .I      LDR      r1,[pc,#836] ; [0x30e0] = 0xffffdfe1
        0x00002d9a:    9803        ..      LDR      r0,[sp,#0xc]
        0x00002d9c:    9a0a        ..      LDR      r2,[sp,#0x28]
        0x00002d9e:    4249        IB      RSBS     r1,r1,#0
        0x00002da0:    1840        @.      ADDS     r0,r0,r1
        0x00002da2:    a903        ..      ADD      r1,sp,#0xc
        0x00002da4:    9003        ..      STR      r0,[sp,#0xc]
        0x00002da6:    4668        hF      MOV      r0,sp
        0x00002da8:    f000fced    ....    BL       _btod_ediv ; 0x3786
        0x00002dac:    e007        ..      B        0x2dbe ; _fp_digits + 236
        0x00002dae:    9903        ..      LDR      r1,[sp,#0xc]
        0x00002db0:    9a0a        ..      LDR      r2,[sp,#0x28]
        0x00002db2:    1808        ..      ADDS     r0,r1,r0
        0x00002db4:    a903        ..      ADD      r1,sp,#0xc
        0x00002db6:    9003        ..      STR      r0,[sp,#0xc]
        0x00002db8:    4668        hF      MOV      r0,sp
        0x00002dba:    f000fcba    ....    BL       _btod_emul ; 0x3732
        0x00002dbe:    9000        ..      STR      r0,[sp,#0]
        0x00002dc0:    0400        ..      LSLS     r0,r0,#16
        0x00002dc2:    9202        ..      STR      r2,[sp,#8]
        0x00002dc4:    0c00        ..      LSRS     r0,r0,#16
        0x00002dc6:    9101        ..      STR      r1,[sp,#4]
        0x00002dc8:    d003        ..      BEQ      0x2dd2 ; _fp_digits + 256
        0x00002dca:    2000        .       MOVS     r0,#0
        0x00002dcc:    43c0        .C      MVNS     r0,r0
        0x00002dce:    0841        A.      LSRS     r1,r0,#1
        0x00002dd0:    e000        ..      B        0x2dd4 ; _fp_digits + 258
        0x00002dd2:    4610        .F      MOV      r0,r2
        0x00002dd4:    9a18        ..      LDR      r2,[sp,#0x60]
        0x00002dd6:    2a00        .*      CMP      r2,#0
        0x00002dd8:    d003        ..      BEQ      0x2de2 ; _fp_digits + 272
        0x00002dda:    2200        ."      MOVS     r2,#0
        0x00002ddc:    9200        ..      STR      r2,[sp,#0]
        0x00002dde:    4615        .F      MOV      r5,r2
        0x00002de0:    e01e        ..      B        0x2e20 ; _fp_digits + 334
        0x00002de2:    1e75        u.      SUBS     r5,r6,#1
        0x00002de4:    d405        ..      BMI      0x2df2 ; _fp_digits + 288
        0x00002de6:    f000f9a9    ....    BL       _ll_udiv10 ; 0x313c
        0x00002dea:    3230        02      ADDS     r2,r2,#0x30
        0x00002dec:    5562        bU      STRB     r2,[r4,r5]
        0x00002dee:    1e6d        m.      SUBS     r5,r5,#1
        0x00002df0:    d5f9        ..      BPL      0x2de6 ; _fp_digits + 276
        0x00002df2:    2201        ."      MOVS     r2,#1
        0x00002df4:    4308        .C      ORRS     r0,r0,r1
        0x00002df6:    9607        ..      STR      r6,[sp,#0x1c]
        0x00002df8:    d002        ..      BEQ      0x2e00 ; _fp_digits + 302
        0x00002dfa:    2200        ."      MOVS     r2,#0
        0x00002dfc:    1c7f        ..      ADDS     r7,r7,#1
        0x00002dfe:    e004        ..      B        0x2e0a ; _fp_digits + 312
        0x00002e00:    7820         x      LDRB     r0,[r4,#0]
        0x00002e02:    2830        0(      CMP      r0,#0x30
        0x00002e04:    d101        ..      BNE      0x2e0a ; _fp_digits + 312
        0x00002e06:    2200        ."      MOVS     r2,#0
        0x00002e08:    1e7f        ..      SUBS     r7,r7,#1
        0x00002e0a:    2a00        .*      CMP      r2,#0
        0x00002e0c:    9706        ..      STR      r7,[sp,#0x18]
        0x00002e0e:    d088        ..      BEQ      0x2d22 ; _fp_digits + 80
        0x00002e10:    e01e        ..      B        0x2e50 ; _fp_digits + 382
        0x00002e12:    2d11        .-      CMP      r5,#0x11
        0x00002e14:    da07        ..      BGE      0x2e26 ; _fp_digits + 340
        0x00002e16:    f000f991    ....    BL       _ll_udiv10 ; 0x313c
        0x00002e1a:    3230        02      ADDS     r2,r2,#0x30
        0x00002e1c:    5562        bU      STRB     r2,[r4,r5]
        0x00002e1e:    1c6d        m.      ADDS     r5,r5,#1
        0x00002e20:    4602        .F      MOV      r2,r0
        0x00002e22:    430a        .C      ORRS     r2,r2,r1
        0x00002e24:    d1f5        ..      BNE      0x2e12 ; _fp_digits + 320
        0x00002e26:    4308        .C      ORRS     r0,r0,r1
        0x00002e28:    d10f        ..      BNE      0x2e4a ; _fp_digits + 376
        0x00002e2a:    2100        .!      MOVS     r1,#0
        0x00002e2c:    1e68        h.      SUBS     r0,r5,#1
        0x00002e2e:    e005        ..      B        0x2e3c ; _fp_digits + 362
        0x00002e30:    5c23        #\      LDRB     r3,[r4,r0]
        0x00002e32:    5c62        b\      LDRB     r2,[r4,r1]
        0x00002e34:    5463        cT      STRB     r3,[r4,r1]
        0x00002e36:    1c49        I.      ADDS     r1,r1,#1
        0x00002e38:    5422        "T      STRB     r2,[r4,r0]
        0x00002e3a:    1e40        @.      SUBS     r0,r0,#1
        0x00002e3c:    4281        .B      CMP      r1,r0
        0x00002e3e:    dbf7        ..      BLT      0x2e30 ; _fp_digits + 350
        0x00002e40:    1ba8        ..      SUBS     r0,r5,r6
        0x00002e42:    1e40        @.      SUBS     r0,r0,#1
        0x00002e44:    9507        ..      STR      r5,[sp,#0x1c]
        0x00002e46:    9006        ..      STR      r0,[sp,#0x18]
        0x00002e48:    e002        ..      B        0x2e50 ; _fp_digits + 382
        0x00002e4a:    9800        ..      LDR      r0,[sp,#0]
        0x00002e4c:    2800        .(      CMP      r0,#0
        0x00002e4e:    d00a        ..      BEQ      0x2e66 ; _fp_digits + 404
        0x00002e50:    9a07        ..      LDR      r2,[sp,#0x1c]
        0x00002e52:    9918        ..      LDR      r1,[sp,#0x60]
        0x00002e54:    2000        .       MOVS     r0,#0
        0x00002e56:    54a0        .T      STRB     r0,[r4,r2]
        0x00002e58:    980f        ..      LDR      r0,[sp,#0x3c]
        0x00002e5a:    9b07        ..      LDR      r3,[sp,#0x1c]
        0x00002e5c:    9a06        ..      LDR      r2,[sp,#0x18]
        0x00002e5e:    6043        C`      STR      r3,[r0,#4]
        0x00002e60:    6002        .`      STR      r2,[r0,#0]
        0x00002e62:    6081        .`      STR      r1,[r0,#8]
        0x00002e64:    e77c        |.      B        0x2d60 ; _fp_digits + 142
        0x00002e66:    2611        .&      MOVS     r6,#0x11
        0x00002e68:    2000        .       MOVS     r0,#0
        0x00002e6a:    9018        ..      STR      r0,[sp,#0x60]
        0x00002e6c:    e759        Y.      B        0x2d22 ; _fp_digits + 80
    _printf_fp_dec_real
        0x00002e6e:    1dd2        ..      ADDS     r2,r2,#7
        0x00002e70:    b5f0        ..      PUSH     {r4-r7,lr}
        0x00002e72:    460d        .F      MOV      r5,r1
        0x00002e74:    4604        .F      MOV      r4,r0
        0x00002e76:    08d1        ..      LSRS     r1,r2,#3
        0x00002e78:    b093        ..      SUB      sp,sp,#0x4c
        0x00002e7a:    00c9        ..      LSLS     r1,r1,#3
        0x00002e7c:    c903        ..      LDM      r1,{r0,r1}
        0x00002e7e:    900c        ..      STR      r0,[sp,#0x30]
        0x00002e80:    910d        ..      STR      r1,[sp,#0x34]
        0x00002e82:    f000fd79    ..y.    BL       __ARM_fpclassify ; 0x3978
        0x00002e86:    4602        .F      MOV      r2,r0
        0x00002e88:    980d        ..      LDR      r0,[sp,#0x34]
        0x00002e8a:    0fc0        ..      LSRS     r0,r0,#31
        0x00002e8c:    d001        ..      BEQ      0x2e92 ; _printf_fp_dec_real + 36
        0x00002e8e:    202d        -       MOVS     r0,#0x2d
        0x00002e90:    e007        ..      B        0x2ea2 ; _printf_fp_dec_real + 52
        0x00002e92:    6820         h      LDR      r0,[r4,#0]
        0x00002e94:    0781        ..      LSLS     r1,r0,#30
        0x00002e96:    d501        ..      BPL      0x2e9c ; _printf_fp_dec_real + 46
        0x00002e98:    202b        +       MOVS     r0,#0x2b
        0x00002e9a:    e002        ..      B        0x2ea2 ; _printf_fp_dec_real + 52
        0x00002e9c:    0740        @.      LSLS     r0,r0,#29
        0x00002e9e:    0fc0        ..      LSRS     r0,r0,#31
        0x00002ea0:    0140        @.      LSLS     r0,r0,#5
        0x00002ea2:    2a03        .*      CMP      r2,#3
        0x00002ea4:    900f        ..      STR      r0,[sp,#0x3c]
        0x00002ea6:    d001        ..      BEQ      0x2eac ; _printf_fp_dec_real + 62
        0x00002ea8:    2a07        .*      CMP      r2,#7
        0x00002eaa:    db05        ..      BLT      0x2eb8 ; _printf_fp_dec_real + 74
        0x00002eac:    4603        .F      MOV      r3,r0
        0x00002eae:    4629        )F      MOV      r1,r5
        0x00002eb0:    4620         F      MOV      r0,r4
        0x00002eb2:    f000f999    ....    BL       _printf_fp_infnan ; 0x31e8
        0x00002eb6:    e10d        ..      B        0x30d4 ; _printf_fp_dec_real + 614
        0x00002eb8:    7820         x      LDRB     r0,[r4,#0]
        0x00002eba:    0680        ..      LSLS     r0,r0,#26
        0x00002ebc:    d501        ..      BPL      0x2ec2 ; _printf_fp_dec_real + 84
        0x00002ebe:    69e7        .i      LDR      r7,[r4,#0x1c]
        0x00002ec0:    e000        ..      B        0x2ec4 ; _printf_fp_dec_real + 86
        0x00002ec2:    2706        .'      MOVS     r7,#6
        0x00002ec4:    4628        (F      MOV      r0,r5
        0x00002ec6:    2d65        e-      CMP      r5,#0x65
        0x00002ec8:    d004        ..      BEQ      0x2ed4 ; _printf_fp_dec_real + 102
        0x00002eca:    2866        f(      CMP      r0,#0x66
        0x00002ecc:    d014        ..      BEQ      0x2ef8 ; _printf_fp_dec_real + 138
        0x00002ece:    2d67        g-      CMP      r5,#0x67
        0x00002ed0:    d169        i.      BNE      0x2fa6 ; _printf_fp_dec_real + 312
        0x00002ed2:    e02d        -.      B        0x2f30 ; _printf_fp_dec_real + 194
        0x00002ed4:    2000        .       MOVS     r0,#0
        0x00002ed6:    2f11        ./      CMP      r7,#0x11
        0x00002ed8:    9000        ..      STR      r0,[sp,#0]
        0x00002eda:    db01        ..      BLT      0x2ee0 ; _printf_fp_dec_real + 114
        0x00002edc:    2311        .#      MOVS     r3,#0x11
        0x00002ede:    e000        ..      B        0x2ee2 ; _printf_fp_dec_real + 116
        0x00002ee0:    1c7b        {.      ADDS     r3,r7,#1
        0x00002ee2:    aa0c        ..      ADD      r2,sp,#0x30
        0x00002ee4:    a903        ..      ADD      r1,sp,#0xc
        0x00002ee6:    a810        ..      ADD      r0,sp,#0x40
        0x00002ee8:    f7fffef3    ....    BL       _fp_digits ; 0x2cd2
        0x00002eec:    9911        ..      LDR      r1,[sp,#0x44]
        0x00002eee:    2600        .&      MOVS     r6,#0
        0x00002ef0:    9810        ..      LDR      r0,[sp,#0x40]
        0x00002ef2:    1c7d        }.      ADDS     r5,r7,#1
        0x00002ef4:    910e        ..      STR      r1,[sp,#0x38]
        0x00002ef6:    e042        B.      B        0x2f7e ; _printf_fp_dec_real + 272
        0x00002ef8:    2001        .       MOVS     r0,#1
        0x00002efa:    463b        ;F      MOV      r3,r7
        0x00002efc:    aa0c        ..      ADD      r2,sp,#0x30
        0x00002efe:    07c0        ..      LSLS     r0,r0,#31
        0x00002f00:    900b        ..      STR      r0,[sp,#0x2c]
        0x00002f02:    2001        .       MOVS     r0,#1
        0x00002f04:    9000        ..      STR      r0,[sp,#0]
        0x00002f06:    a903        ..      ADD      r1,sp,#0xc
        0x00002f08:    a810        ..      ADD      r0,sp,#0x40
        0x00002f0a:    f7fffee2    ....    BL       _fp_digits ; 0x2cd2
        0x00002f0e:    9d11        ..      LDR      r5,[sp,#0x44]
        0x00002f10:    9812        ..      LDR      r0,[sp,#0x48]
        0x00002f12:    9910        ..      LDR      r1,[sp,#0x40]
        0x00002f14:    2600        .&      MOVS     r6,#0
        0x00002f16:    2800        .(      CMP      r0,#0
        0x00002f18:    950e        ..      STR      r5,[sp,#0x38]
        0x00002f1a:    d101        ..      BNE      0x2f20 ; _printf_fp_dec_real + 178
        0x00002f1c:    1c78        x.      ADDS     r0,r7,#1
        0x00002f1e:    180d        ..      ADDS     r5,r1,r0
        0x00002f20:    1b78        x.      SUBS     r0,r7,r5
        0x00002f22:    d402        ..      BMI      0x2f2a ; _printf_fp_dec_real + 188
        0x00002f24:    4246        FB      RSBS     r6,r0,#0
        0x00002f26:    1e76        v.      SUBS     r6,r6,#1
        0x00002f28:    1c7d        }.      ADDS     r5,r7,#1
        0x00002f2a:    1be8        ..      SUBS     r0,r5,r7
        0x00002f2c:    9000        ..      STR      r0,[sp,#0]
        0x00002f2e:    e03a        :.      B        0x2fa6 ; _printf_fp_dec_real + 312
        0x00002f30:    2f01        ./      CMP      r7,#1
        0x00002f32:    da00        ..      BGE      0x2f36 ; _printf_fp_dec_real + 200
        0x00002f34:    2701        .'      MOVS     r7,#1
        0x00002f36:    2000        .       MOVS     r0,#0
        0x00002f38:    2f11        ./      CMP      r7,#0x11
        0x00002f3a:    9000        ..      STR      r0,[sp,#0]
        0x00002f3c:    dd01        ..      BLE      0x2f42 ; _printf_fp_dec_real + 212
        0x00002f3e:    2311        .#      MOVS     r3,#0x11
        0x00002f40:    e000        ..      B        0x2f44 ; _printf_fp_dec_real + 214
        0x00002f42:    463b        ;F      MOV      r3,r7
        0x00002f44:    aa0c        ..      ADD      r2,sp,#0x30
        0x00002f46:    a903        ..      ADD      r1,sp,#0xc
        0x00002f48:    a810        ..      ADD      r0,sp,#0x40
        0x00002f4a:    f7fffec2    ....    BL       _fp_digits ; 0x2cd2
        0x00002f4e:    9911        ..      LDR      r1,[sp,#0x44]
        0x00002f50:    463d        =F      MOV      r5,r7
        0x00002f52:    9810        ..      LDR      r0,[sp,#0x40]
        0x00002f54:    2600        .&      MOVS     r6,#0
        0x00002f56:    910e        ..      STR      r1,[sp,#0x38]
        0x00002f58:    7821        !x      LDRB     r1,[r4,#0]
        0x00002f5a:    0709        ..      LSLS     r1,r1,#28
        0x00002f5c:    d40b        ..      BMI      0x2f76 ; _printf_fp_dec_real + 264
        0x00002f5e:    990e        ..      LDR      r1,[sp,#0x38]
        0x00002f60:    42a9        .B      CMP      r1,r5
        0x00002f62:    da00        ..      BGE      0x2f66 ; _printf_fp_dec_real + 248
        0x00002f64:    460d        .F      MOV      r5,r1
        0x00002f66:    a903        ..      ADD      r1,sp,#0xc
        0x00002f68:    2d01        .-      CMP      r5,#1
        0x00002f6a:    dd04        ..      BLE      0x2f76 ; _printf_fp_dec_real + 264
        0x00002f6c:    194a        J.      ADDS     r2,r1,r5
        0x00002f6e:    3a20         :      SUBS     r2,r2,#0x20
        0x00002f70:    7fd2        ..      LDRB     r2,[r2,#0x1f]
        0x00002f72:    2a30        0*      CMP      r2,#0x30
        0x00002f74:    d006        ..      BEQ      0x2f84 ; _printf_fp_dec_real + 278
        0x00002f76:    42b8        .B      CMP      r0,r7
        0x00002f78:    da01        ..      BGE      0x2f7e ; _printf_fp_dec_real + 272
        0x00002f7a:    1d01        ..      ADDS     r1,r0,#4
        0x00002f7c:    da04        ..      BGE      0x2f88 ; _printf_fp_dec_real + 282
        0x00002f7e:    2101        .!      MOVS     r1,#1
        0x00002f80:    9100        ..      STR      r1,[sp,#0]
        0x00002f82:    e00f        ..      B        0x2fa4 ; _printf_fp_dec_real + 310
        0x00002f84:    1e6d        m.      SUBS     r5,r5,#1
        0x00002f86:    e7ef        ..      B        0x2f68 ; _printf_fp_dec_real + 250
        0x00002f88:    2800        .(      CMP      r0,#0
        0x00002f8a:    dc02        ..      BGT      0x2f92 ; _printf_fp_dec_real + 292
        0x00002f8c:    1986        ..      ADDS     r6,r0,r6
        0x00002f8e:    1a2d        -.      SUBS     r5,r5,r0
        0x00002f90:    e003        ..      B        0x2f9a ; _printf_fp_dec_real + 300
        0x00002f92:    1c41        A.      ADDS     r1,r0,#1
        0x00002f94:    42a9        .B      CMP      r1,r5
        0x00002f96:    dd00        ..      BLE      0x2f9a ; _printf_fp_dec_real + 300
        0x00002f98:    460d        .F      MOV      r5,r1
        0x00002f9a:    1b80        ..      SUBS     r0,r0,r6
        0x00002f9c:    1c40        @.      ADDS     r0,r0,#1
        0x00002f9e:    9000        ..      STR      r0,[sp,#0]
        0x00002fa0:    2001        .       MOVS     r0,#1
        0x00002fa2:    07c0        ..      LSLS     r0,r0,#31
        0x00002fa4:    900b        ..      STR      r0,[sp,#0x2c]
        0x00002fa6:    7820         x      LDRB     r0,[r4,#0]
        0x00002fa8:    0700        ..      LSLS     r0,r0,#28
        0x00002faa:    d405        ..      BMI      0x2fb8 ; _printf_fp_dec_real + 330
        0x00002fac:    9800        ..      LDR      r0,[sp,#0]
        0x00002fae:    42a8        .B      CMP      r0,r5
        0x00002fb0:    db02        ..      BLT      0x2fb8 ; _printf_fp_dec_real + 330
        0x00002fb2:    2000        .       MOVS     r0,#0
        0x00002fb4:    43c0        .C      MVNS     r0,r0
        0x00002fb6:    9000        ..      STR      r0,[sp,#0]
        0x00002fb8:    4669        iF      MOV      r1,sp
        0x00002fba:    2000        .       MOVS     r0,#0
        0x00002fbc:    72c8        .r      STRB     r0,[r1,#0xb]
        0x00002fbe:    980b        ..      LDR      r0,[sp,#0x2c]
        0x00002fc0:    2101        .!      MOVS     r1,#1
        0x00002fc2:    af02        ..      ADD      r7,sp,#8
        0x00002fc4:    3703        .7      ADDS     r7,#3
        0x00002fc6:    07c9        ..      LSLS     r1,r1,#31
        0x00002fc8:    4288        .B      CMP      r0,r1
        0x00002fca:    d025        %.      BEQ      0x3018 ; _printf_fp_dec_real + 426
        0x00002fcc:    2002        .       MOVS     r0,#2
        0x00002fce:    9010        ..      STR      r0,[sp,#0x40]
        0x00002fd0:    202b        +       MOVS     r0,#0x2b
        0x00002fd2:    9011        ..      STR      r0,[sp,#0x44]
        0x00002fd4:    980b        ..      LDR      r0,[sp,#0x2c]
        0x00002fd6:    2800        .(      CMP      r0,#0
        0x00002fd8:    da0b        ..      BGE      0x2ff2 ; _printf_fp_dec_real + 388
        0x00002fda:    4240        @B      RSBS     r0,r0,#0
        0x00002fdc:    900b        ..      STR      r0,[sp,#0x2c]
        0x00002fde:    202d        -       MOVS     r0,#0x2d
        0x00002fe0:    9011        ..      STR      r0,[sp,#0x44]
        0x00002fe2:    e006        ..      B        0x2ff2 ; _printf_fp_dec_real + 388
        0x00002fe4:    980b        ..      LDR      r0,[sp,#0x2c]
        0x00002fe6:    f000f891    ....    BL       __rt_udiv10 ; 0x310c
        0x00002fea:    3130        01      ADDS     r1,r1,#0x30
        0x00002fec:    1e7f        ..      SUBS     r7,r7,#1
        0x00002fee:    900b        ..      STR      r0,[sp,#0x2c]
        0x00002ff0:    7039        9p      STRB     r1,[r7,#0]
        0x00002ff2:    9910        ..      LDR      r1,[sp,#0x40]
        0x00002ff4:    1e48        H.      SUBS     r0,r1,#1
        0x00002ff6:    2900        .)      CMP      r1,#0
        0x00002ff8:    9010        ..      STR      r0,[sp,#0x40]
        0x00002ffa:    dcf3        ..      BGT      0x2fe4 ; _printf_fp_dec_real + 374
        0x00002ffc:    980b        ..      LDR      r0,[sp,#0x2c]
        0x00002ffe:    2800        .(      CMP      r0,#0
        0x00003000:    d1f0        ..      BNE      0x2fe4 ; _printf_fp_dec_real + 374
        0x00003002:    9811        ..      LDR      r0,[sp,#0x44]
        0x00003004:    1e7f        ..      SUBS     r7,r7,#1
        0x00003006:    7038        8p      STRB     r0,[r7,#0]
        0x00003008:    8820         .      LDRH     r0,[r4,#0]
        0x0000300a:    0500        ..      LSLS     r0,r0,#20
        0x0000300c:    d501        ..      BPL      0x3012 ; _printf_fp_dec_real + 420
        0x0000300e:    2045        E       MOVS     r0,#0x45
        0x00003010:    e000        ..      B        0x3014 ; _printf_fp_dec_real + 422
        0x00003012:    2065        e       MOVS     r0,#0x65
        0x00003014:    1e7f        ..      SUBS     r7,r7,#1
        0x00003016:    7038        8p      STRB     r0,[r7,#0]
        0x00003018:    a801        ..      ADD      r0,sp,#4
        0x0000301a:    1bc0        ..      SUBS     r0,r0,r7
        0x0000301c:    1dc0        ..      ADDS     r0,r0,#7
        0x0000301e:    900b        ..      STR      r0,[sp,#0x2c]
        0x00003020:    980f        ..      LDR      r0,[sp,#0x3c]
        0x00003022:    2800        .(      CMP      r0,#0
        0x00003024:    d000        ..      BEQ      0x3028 ; _printf_fp_dec_real + 442
        0x00003026:    2001        .       MOVS     r0,#1
        0x00003028:    1941        A.      ADDS     r1,r0,r5
        0x0000302a:    9800        ..      LDR      r0,[sp,#0]
        0x0000302c:    17c0        ..      ASRS     r0,r0,#31
        0x0000302e:    1809        ..      ADDS     r1,r1,r0
        0x00003030:    980b        ..      LDR      r0,[sp,#0x2c]
        0x00003032:    1808        ..      ADDS     r0,r1,r0
        0x00003034:    69a1        .i      LDR      r1,[r4,#0x18]
        0x00003036:    1a08        ..      SUBS     r0,r1,r0
        0x00003038:    1e40        @.      SUBS     r0,r0,#1
        0x0000303a:    61a0        .a      STR      r0,[r4,#0x18]
        0x0000303c:    7820         x      LDRB     r0,[r4,#0]
        0x0000303e:    06c0        ..      LSLS     r0,r0,#27
        0x00003040:    d402        ..      BMI      0x3048 ; _printf_fp_dec_real + 474
        0x00003042:    4620         F      MOV      r0,r4
        0x00003044:    46c0        .F      MOV      r8,r8
        0x00003046:    46c0        .F      MOV      r8,r8
        0x00003048:    980f        ..      LDR      r0,[sp,#0x3c]
        0x0000304a:    2800        .(      CMP      r0,#0
        0x0000304c:    d005        ..      BEQ      0x305a ; _printf_fp_dec_real + 492
        0x0000304e:    6862        bh      LDR      r2,[r4,#4]
        0x00003050:    68a1        .h      LDR      r1,[r4,#8]
        0x00003052:    4790        .G      BLX      r2
        0x00003054:    6a20         j      LDR      r0,[r4,#0x20]
        0x00003056:    1c40        @.      ADDS     r0,r0,#1
        0x00003058:    6220         b      STR      r0,[r4,#0x20]
        0x0000305a:    7820         x      LDRB     r0,[r4,#0]
        0x0000305c:    06c0        ..      LSLS     r0,r0,#27
        0x0000305e:    d524        $.      BPL      0x30aa ; _printf_fp_dec_real + 572
        0x00003060:    4620         F      MOV      r0,r4
        0x00003062:    46c0        .F      MOV      r8,r8
        0x00003064:    46c0        .F      MOV      r8,r8
        0x00003066:    e020         .      B        0x30aa ; _printf_fp_dec_real + 572
        0x00003068:    2e00        ..      CMP      r6,#0
        0x0000306a:    db07        ..      BLT      0x307c ; _printf_fp_dec_real + 526
        0x0000306c:    980e        ..      LDR      r0,[sp,#0x38]
        0x0000306e:    42b0        .B      CMP      r0,r6
        0x00003070:    dd04        ..      BLE      0x307c ; _printf_fp_dec_real + 526
        0x00003072:    a803        ..      ADD      r0,sp,#0xc
        0x00003074:    6862        bh      LDR      r2,[r4,#4]
        0x00003076:    5d80        .]      LDRB     r0,[r0,r6]
        0x00003078:    68a1        .h      LDR      r1,[r4,#8]
        0x0000307a:    e002        ..      B        0x3082 ; _printf_fp_dec_real + 532
        0x0000307c:    6862        bh      LDR      r2,[r4,#4]
        0x0000307e:    68a1        .h      LDR      r1,[r4,#8]
        0x00003080:    2030        0       MOVS     r0,#0x30
        0x00003082:    4790        .G      BLX      r2
        0x00003084:    6a20         j      LDR      r0,[r4,#0x20]
        0x00003086:    1c76        v.      ADDS     r6,r6,#1
        0x00003088:    1c40        @.      ADDS     r0,r0,#1
        0x0000308a:    6220         b      STR      r0,[r4,#0x20]
        0x0000308c:    9800        ..      LDR      r0,[sp,#0]
        0x0000308e:    1e40        @.      SUBS     r0,r0,#1
        0x00003090:    9000        ..      STR      r0,[sp,#0]
        0x00003092:    d10a        ..      BNE      0x30aa ; _printf_fp_dec_real + 572
        0x00003094:    f000f84e    ..N.    BL       __rt_locale ; 0x3134
        0x00003098:    68c0        .h      LDR      r0,[r0,#0xc]
        0x0000309a:    6862        bh      LDR      r2,[r4,#4]
        0x0000309c:    6801        .h      LDR      r1,[r0,#0]
        0x0000309e:    5c40        @\      LDRB     r0,[r0,r1]
        0x000030a0:    68a1        .h      LDR      r1,[r4,#8]
        0x000030a2:    4790        .G      BLX      r2
        0x000030a4:    6a20         j      LDR      r0,[r4,#0x20]
        0x000030a6:    1c40        @.      ADDS     r0,r0,#1
        0x000030a8:    6220         b      STR      r0,[r4,#0x20]
        0x000030aa:    4628        (F      MOV      r0,r5
        0x000030ac:    1e6d        m.      SUBS     r5,r5,#1
        0x000030ae:    2800        .(      CMP      r0,#0
        0x000030b0:    dcda        ..      BGT      0x3068 ; _printf_fp_dec_real + 506
        0x000030b2:    e007        ..      B        0x30c4 ; _printf_fp_dec_real + 598
        0x000030b4:    6862        bh      LDR      r2,[r4,#4]
        0x000030b6:    7838        8x      LDRB     r0,[r7,#0]
        0x000030b8:    68a1        .h      LDR      r1,[r4,#8]
        0x000030ba:    1c7f        ..      ADDS     r7,r7,#1
        0x000030bc:    4790        .G      BLX      r2
        0x000030be:    6a20         j      LDR      r0,[r4,#0x20]
        0x000030c0:    1c40        @.      ADDS     r0,r0,#1
        0x000030c2:    6220         b      STR      r0,[r4,#0x20]
        0x000030c4:    990b        ..      LDR      r1,[sp,#0x2c]
        0x000030c6:    1e48        H.      SUBS     r0,r1,#1
        0x000030c8:    2900        .)      CMP      r1,#0
        0x000030ca:    900b        ..      STR      r0,[sp,#0x2c]
        0x000030cc:    dcf2        ..      BGT      0x30b4 ; _printf_fp_dec_real + 582
        0x000030ce:    4620         F      MOV      r0,r4
        0x000030d0:    46c0        .F      MOV      r8,r8
        0x000030d2:    46c0        .F      MOV      r8,r8
        0x000030d4:    2002        .       MOVS     r0,#2
        0x000030d6:    e643        C.      B        0x2d60 ; _fp_digits + 142
    $d
        0x000030d8:    fffffc01    ....    DCD    4294966273
        0x000030dc:    00004d10    .M..    DCD    19728
        0x000030e0:    ffffdfe1    ....    DCD    4294959073
    $t
    .text
    _printf_char_file
        0x000030e4:    4b08        .K      LDR      r3,[pc,#32] ; [0x3108] = 0xffffd357
        0x000030e6:    b570        p.      PUSH     {r4-r6,lr}
        0x000030e8:    460d        .F      MOV      r5,r1
        0x000030ea:    447b        {D      ADD      r3,r3,pc
        0x000030ec:    f000f869    ..i.    BL       _printf_char_common ; 0x31c2
        0x000030f0:    4604        .F      MOV      r4,r0
        0x000030f2:    4628        (F      MOV      r0,r5
        0x000030f4:    f7fdf9b3    ....    BL       ferror ; 0x45e
        0x000030f8:    2800        .(      CMP      r0,#0
        0x000030fa:    d002        ..      BEQ      0x3102 ; _printf_char_file + 30
        0x000030fc:    2000        .       MOVS     r0,#0
        0x000030fe:    43c0        .C      MVNS     r0,r0
        0x00003100:    bd70        p.      POP      {r4-r6,pc}
        0x00003102:    4620         F      MOV      r0,r4
        0x00003104:    bd70        p.      POP      {r4-r6,pc}
    $d
        0x00003106:    0000        ..      DCW    0
        0x00003108:    ffffd357    W...    DCD    4294955863
    $t
    .text
    __rt_udiv10
        0x0000310c:    4601        .F      MOV      r1,r0
        0x0000310e:    0880        ..      LSRS     r0,r0,#2
        0x00003110:    1a08        ..      SUBS     r0,r1,r0
        0x00003112:    0902        ..      LSRS     r2,r0,#4
        0x00003114:    1810        ..      ADDS     r0,r2,r0
        0x00003116:    0a02        ..      LSRS     r2,r0,#8
        0x00003118:    1810        ..      ADDS     r0,r2,r0
        0x0000311a:    0c02        ..      LSRS     r2,r0,#16
        0x0000311c:    1810        ..      ADDS     r0,r2,r0
        0x0000311e:    08c0        ..      LSRS     r0,r0,#3
        0x00003120:    0082        ..      LSLS     r2,r0,#2
        0x00003122:    1812        ..      ADDS     r2,r2,r0
        0x00003124:    0052        R.      LSLS     r2,r2,#1
        0x00003126:    1a89        ..      SUBS     r1,r1,r2
        0x00003128:    e001        ..      B        0x312e ; __rt_udiv10 + 34
        0x0000312a:    390a        .9      SUBS     r1,r1,#0xa
        0x0000312c:    1c40        @.      ADDS     r0,r0,#1
        0x0000312e:    290a        .)      CMP      r1,#0xa
        0x00003130:    d2fb        ..      BCS      0x312a ; __rt_udiv10 + 30
        0x00003132:    4770        pG      BX       lr
    .text
    __rt_locale
        0x00003134:    4800        .H      LDR      r0,[pc,#0] ; [0x3138] = 0x200000c4
        0x00003136:    4770        pG      BX       lr
    $d
        0x00003138:    200000c4    ...     DCD    536871108
    $t
    .text
    _ll_udiv10
        0x0000313c:    460b        .F      MOV      r3,r1
        0x0000313e:    b570        p.      PUSH     {r4-r6,lr}
        0x00003140:    4602        .F      MOV      r2,r0
        0x00003142:    0789        ..      LSLS     r1,r1,#30
        0x00003144:    0880        ..      LSRS     r0,r0,#2
        0x00003146:    4308        .C      ORRS     r0,r0,r1
        0x00003148:    4619        .F      MOV      r1,r3
        0x0000314a:    089d        ..      LSRS     r5,r3,#2
        0x0000314c:    1a14        ..      SUBS     r4,r2,r0
        0x0000314e:    41a9        .A      SBCS     r1,r1,r5
        0x00003150:    0925        %.      LSRS     r5,r4,#4
        0x00003152:    0708        ..      LSLS     r0,r1,#28
        0x00003154:    4305        .C      ORRS     r5,r5,r0
        0x00003156:    0908        ..      LSRS     r0,r1,#4
        0x00003158:    192c        ,.      ADDS     r4,r5,r4
        0x0000315a:    4148        HA      ADCS     r0,r0,r1
        0x0000315c:    0a25        %.      LSRS     r5,r4,#8
        0x0000315e:    0601        ..      LSLS     r1,r0,#24
        0x00003160:    430d        .C      ORRS     r5,r5,r1
        0x00003162:    0a01        ..      LSRS     r1,r0,#8
        0x00003164:    192c        ,.      ADDS     r4,r5,r4
        0x00003166:    4141        AA      ADCS     r1,r1,r0
        0x00003168:    0c20         .      LSRS     r0,r4,#16
        0x0000316a:    040d        ..      LSLS     r5,r1,#16
        0x0000316c:    4328        (C      ORRS     r0,r0,r5
        0x0000316e:    0c0d        ..      LSRS     r5,r1,#16
        0x00003170:    1900        ..      ADDS     r0,r0,r4
        0x00003172:    414d        MA      ADCS     r5,r5,r1
        0x00003174:    2100        .!      MOVS     r1,#0
        0x00003176:    1940        @.      ADDS     r0,r0,r5
        0x00003178:    414d        MA      ADCS     r5,r5,r1
        0x0000317a:    08c0        ..      LSRS     r0,r0,#3
        0x0000317c:    0769        i.      LSLS     r1,r5,#29
        0x0000317e:    4308        .C      ORRS     r0,r0,r1
        0x00003180:    08e9        ..      LSRS     r1,r5,#3
        0x00003182:    0f84        ..      LSRS     r4,r0,#30
        0x00003184:    008d        ..      LSLS     r5,r1,#2
        0x00003186:    4325        %C      ORRS     r5,r5,r4
        0x00003188:    0084        ..      LSLS     r4,r0,#2
        0x0000318a:    1824        $.      ADDS     r4,r4,r0
        0x0000318c:    414d        MA      ADCS     r5,r5,r1
        0x0000318e:    1924        $.      ADDS     r4,r4,r4
        0x00003190:    416d        mA      ADCS     r5,r5,r5
        0x00003192:    1b12        ..      SUBS     r2,r2,r4
        0x00003194:    41ab        .A      SBCS     r3,r3,r5
        0x00003196:    e007        ..      B        0x31a8 ; _ll_udiv10 + 108
        0x00003198:    2509        .%      MOVS     r5,#9
        0x0000319a:    43ed        .C      MVNS     r5,r5
        0x0000319c:    112c        ,.      ASRS     r4,r5,#4
        0x0000319e:    1952        R.      ADDS     r2,r2,r5
        0x000031a0:    4163        cA      ADCS     r3,r3,r4
        0x000031a2:    2400        .$      MOVS     r4,#0
        0x000031a4:    1c40        @.      ADDS     r0,r0,#1
        0x000031a6:    4161        aA      ADCS     r1,r1,r4
        0x000031a8:    461c        .F      MOV      r4,r3
        0x000031aa:    250a        .%      MOVS     r5,#0xa
        0x000031ac:    2600        .&      MOVS     r6,#0
        0x000031ae:    1b55        U.      SUBS     r5,r2,r5
        0x000031b0:    41b4        .A      SBCS     r4,r4,r6
        0x000031b2:    d2f1        ..      BCS      0x3198 ; _ll_udiv10 + 92
        0x000031b4:    bd70        p.      POP      {r4-r6,pc}
        0x000031b6:    0000        ..      MOVS     r0,r0
    .text
    _printf_input_char
        0x000031b8:    6901        .i      LDR      r1,[r0,#0x10]
        0x000031ba:    1c4a        J.      ADDS     r2,r1,#1
        0x000031bc:    6102        .a      STR      r2,[r0,#0x10]
        0x000031be:    7808        .x      LDRB     r0,[r1,#0]
        0x000031c0:    4770        pG      BX       lr
    _printf_char_common
        0x000031c2:    b500        ..      PUSH     {lr}
        0x000031c4:    b08f        ..      SUB      sp,sp,#0x3c
        0x000031c6:    9102        ..      STR      r1,[sp,#8]
        0x000031c8:    2100        .!      MOVS     r1,#0
        0x000031ca:    9105        ..      STR      r1,[sp,#0x14]
        0x000031cc:    4905        .I      LDR      r1,[pc,#20] ; [0x31e4] = 0xffffffe5
        0x000031ce:    9301        ..      STR      r3,[sp,#4]
        0x000031d0:    4479        yD      ADD      r1,r1,pc
        0x000031d2:    9103        ..      STR      r1,[sp,#0xc]
        0x000031d4:    4611        .F      MOV      r1,r2
        0x000031d6:    9004        ..      STR      r0,[sp,#0x10]
        0x000031d8:    4668        hF      MOV      r0,sp
        0x000031da:    f7fefda7    ....    BL       __printf ; 0x1d2c
        0x000031de:    b00f        ..      ADD      sp,sp,#0x3c
        0x000031e0:    bd00        ..      POP      {pc}
    $d
        0x000031e2:    0000        ..      DCW    0
        0x000031e4:    ffffffe5    ....    DCD    4294967269
    $t
    .text
    _printf_fp_infnan
        0x000031e8:    b5f8        ..      PUSH     {r3-r7,lr}
        0x000031ea:    461f        .F      MOV      r7,r3
        0x000031ec:    4604        .F      MOV      r4,r0
        0x000031ee:    2301        .#      MOVS     r3,#1
        0x000031f0:    6800        .h      LDR      r0,[r0,#0]
        0x000031f2:    02db        ..      LSLS     r3,r3,#11
        0x000031f4:    2603        .&      MOVS     r6,#3
        0x000031f6:    4601        .F      MOV      r1,r0
        0x000031f8:    4018        .@      ANDS     r0,r0,r3
        0x000031fa:    2a07        .*      CMP      r2,#7
        0x000031fc:    db05        ..      BLT      0x320a ; _printf_fp_infnan + 34
        0x000031fe:    2800        .(      CMP      r0,#0
        0x00003200:    d001        ..      BEQ      0x3206 ; _printf_fp_infnan + 30
        0x00003202:    a517        ..      ADR      r5,{pc}+0x5e ; 0x3260
        0x00003204:    e006        ..      B        0x3214 ; _printf_fp_infnan + 44
        0x00003206:    a517        ..      ADR      r5,{pc}+0x5e ; 0x3264
        0x00003208:    e004        ..      B        0x3214 ; _printf_fp_infnan + 44
        0x0000320a:    2800        .(      CMP      r0,#0
        0x0000320c:    d001        ..      BEQ      0x3212 ; _printf_fp_infnan + 42
        0x0000320e:    a516        ..      ADR      r5,{pc}+0x5a ; 0x3268
        0x00003210:    e000        ..      B        0x3214 ; _printf_fp_infnan + 44
        0x00003212:    a516        ..      ADR      r5,{pc}+0x5a ; 0x326c
        0x00003214:    2010        .       MOVS     r0,#0x10
        0x00003216:    4381        .C      BICS     r1,r1,r0
        0x00003218:    6021        !`      STR      r1,[r4,#0]
        0x0000321a:    69a0        .i      LDR      r0,[r4,#0x18]
        0x0000321c:    1ec0        ..      SUBS     r0,r0,#3
        0x0000321e:    2f00        ./      CMP      r7,#0
        0x00003220:    61a0        .a      STR      r0,[r4,#0x18]
        0x00003222:    d001        ..      BEQ      0x3228 ; _printf_fp_infnan + 64
        0x00003224:    1e40        @.      SUBS     r0,r0,#1
        0x00003226:    61a0        .a      STR      r0,[r4,#0x18]
        0x00003228:    4620         F      MOV      r0,r4
        0x0000322a:    46c0        .F      MOV      r8,r8
        0x0000322c:    46c0        .F      MOV      r8,r8
        0x0000322e:    2f00        ./      CMP      r7,#0
        0x00003230:    d009        ..      BEQ      0x3246 ; _printf_fp_infnan + 94
        0x00003232:    4638        8F      MOV      r0,r7
        0x00003234:    6862        bh      LDR      r2,[r4,#4]
        0x00003236:    68a1        .h      LDR      r1,[r4,#8]
        0x00003238:    4790        .G      BLX      r2
        0x0000323a:    6a20         j      LDR      r0,[r4,#0x20]
        0x0000323c:    1c40        @.      ADDS     r0,r0,#1
        0x0000323e:    6220         b      STR      r0,[r4,#0x20]
        0x00003240:    1cc0        ..      ADDS     r0,r0,#3
        0x00003242:    6220         b      STR      r0,[r4,#0x20]
        0x00003244:    e006        ..      B        0x3254 ; _printf_fp_infnan + 108
        0x00003246:    6a20         j      LDR      r0,[r4,#0x20]
        0x00003248:    e7fa        ..      B        0x3240 ; _printf_fp_infnan + 88
        0x0000324a:    6862        bh      LDR      r2,[r4,#4]
        0x0000324c:    7828        (x      LDRB     r0,[r5,#0]
        0x0000324e:    68a1        .h      LDR      r1,[r4,#8]
        0x00003250:    1c6d        m.      ADDS     r5,r5,#1
        0x00003252:    4790        .G      BLX      r2
        0x00003254:    1e76        v.      SUBS     r6,r6,#1
        0x00003256:    d2f8        ..      BCS      0x324a ; _printf_fp_infnan + 98
        0x00003258:    4620         F      MOV      r0,r4
        0x0000325a:    46c0        .F      MOV      r8,r8
        0x0000325c:    46c0        .F      MOV      r8,r8
        0x0000325e:    bdf8        ..      POP      {r3-r7,pc}
    $d
        0x00003260:    004e414e    NAN.    DCD    5128526
        0x00003264:    006e616e    nan.    DCD    7233902
        0x00003268:    00464e49    INF.    DCD    4607561
        0x0000326c:    00666e69    inf.    DCD    6712937
    $t
    .text
    _btod_etento
        0x00003270:    b5f7        ..      PUSH     {r0-r2,r4-r7,lr}
        0x00003272:    4616        .F      MOV      r6,r2
        0x00003274:    b08a        ..      SUB      sp,sp,#0x28
        0x00003276:    4830        0H      LDR      r0,[pc,#192] ; [0x3338] = 0xf3c
        0x00003278:    4478        xD      ADD      r0,r0,pc
        0x0000327a:    466c        lF      MOV      r4,sp
        0x0000327c:    4603        .F      MOV      r3,r0
        0x0000327e:    337c        |3      ADDS     r3,r3,#0x7c
        0x00003280:    6fc0        .o      LDR      r0,[r0,#0x7c]
        0x00003282:    685a        Zh      LDR      r2,[r3,#4]
        0x00003284:    689b        .h      LDR      r3,[r3,#8]
        0x00003286:    c40d        ..      STM      r4!,{r0,r2,r3}
        0x00003288:    4b2b        +K      LDR      r3,[pc,#172] ; [0x3338] = 0xf3c
        0x0000328a:    447b        {D      ADD      r3,r3,pc
        0x0000328c:    336e        n3      ADDS     r3,r3,#0x6e
        0x0000328e:    3308        .3      ADDS     r3,r3,#8
        0x00003290:    ac03        ..      ADD      r4,sp,#0xc
        0x00003292:    cb0d        ..      LDM      r3,{r0,r2,r3}
        0x00003294:    c40d        ..      STM      r4!,{r0,r2,r3}
        0x00003296:    2037        7       MOVS     r0,#0x37
        0x00003298:    01c0        ..      LSLS     r0,r0,#7
        0x0000329a:    1808        ..      ADDS     r0,r1,r0
        0x0000329c:    2137        7!      MOVS     r1,#0x37
        0x0000329e:    301b        .0      ADDS     r0,r0,#0x1b
        0x000032a0:    f7fefdd5    ....    BL       __aeabi_idiv ; 0x1e4e
        0x000032a4:    4605        .F      MOV      r5,r0
        0x000032a6:    460c        .F      MOV      r4,r1
        0x000032a8:    3d80        .=      SUBS     r5,r5,#0x80
        0x000032aa:    3c1b        .<      SUBS     r4,r4,#0x1b
        0x000032ac:    d502        ..      BPL      0x32b4 ; _btod_etento + 68
        0x000032ae:    4264        dB      RSBS     r4,r4,#0
        0x000032b0:    2001        .       MOVS     r0,#1
        0x000032b2:    e000        ..      B        0x32b6 ; _btod_etento + 70
        0x000032b4:    2000        .       MOVS     r0,#0
        0x000032b6:    2700        .'      MOVS     r7,#0
        0x000032b8:    9009        ..      STR      r0,[sp,#0x24]
        0x000032ba:    e00f        ..      B        0x32dc ; _btod_etento + 108
        0x000032bc:    07e0        ..      LSLS     r0,r4,#31
        0x000032be:    d00b        ..      BEQ      0x32d8 ; _btod_etento + 104
        0x000032c0:    200c        .       MOVS     r0,#0xc
        0x000032c2:    491d        .I      LDR      r1,[pc,#116] ; [0x3338] = 0xf3c
        0x000032c4:    4378        xC      MULS     r0,r7,r0
        0x000032c6:    4479        yD      ADD      r1,r1,pc
        0x000032c8:    4632        2F      MOV      r2,r6
        0x000032ca:    394e        N9      SUBS     r1,r1,#0x4e
        0x000032cc:    1841        A.      ADDS     r1,r0,r1
        0x000032ce:    4668        hF      MOV      r0,sp
        0x000032d0:    f000fa2f    ../.    BL       _btod_emul ; 0x3732
        0x000032d4:    466b        kF      MOV      r3,sp
        0x000032d6:    c307        ..      STM      r3!,{r0-r2}
        0x000032d8:    1064        d.      ASRS     r4,r4,#1
        0x000032da:    1c7f        ..      ADDS     r7,r7,#1
        0x000032dc:    2c00        .,      CMP      r4,#0
        0x000032de:    d1ed        ..      BNE      0x32bc ; _btod_etento + 76
        0x000032e0:    4f15        .O      LDR      r7,[pc,#84] ; [0x3338] = 0xf3c
        0x000032e2:    447f        .D      ADD      r7,r7,pc
        0x000032e4:    3f2e        .?      SUBS     r7,r7,#0x2e
        0x000032e6:    e016        ..      B        0x3316 ; _btod_etento + 166
        0x000032e8:    07e8        ..      LSLS     r0,r5,#31
        0x000032ea:    d012        ..      BEQ      0x3312 ; _btod_etento + 162
        0x000032ec:    0120         .      LSLS     r0,r4,#4
        0x000032ee:    19c0        ..      ADDS     r0,r0,r7
        0x000032f0:    4601        .F      MOV      r1,r0
        0x000032f2:    c90e        ..      LDM      r1,{r1-r3}
        0x000032f4:    9106        ..      STR      r1,[sp,#0x18]
        0x000032f6:    9308        ..      STR      r3,[sp,#0x20]
        0x000032f8:    9207        ..      STR      r2,[sp,#0x1c]
        0x000032fa:    68c0        .h      LDR      r0,[r0,#0xc]
        0x000032fc:    42f0        .B      CMN      r0,r6
        0x000032fe:    d101        ..      BNE      0x3304 ; _btod_etento + 148
        0x00003300:    1998        ..      ADDS     r0,r3,r6
        0x00003302:    9008        ..      STR      r0,[sp,#0x20]
        0x00003304:    4632        2F      MOV      r2,r6
        0x00003306:    a906        ..      ADD      r1,sp,#0x18
        0x00003308:    a803        ..      ADD      r0,sp,#0xc
        0x0000330a:    f000fa12    ....    BL       _btod_emul ; 0x3732
        0x0000330e:    ab03        ..      ADD      r3,sp,#0xc
        0x00003310:    c307        ..      STM      r3!,{r0-r2}
        0x00003312:    106d        m.      ASRS     r5,r5,#1
        0x00003314:    1c64        d.      ADDS     r4,r4,#1
        0x00003316:    2d00        .-      CMP      r5,#0
        0x00003318:    d1e6        ..      BNE      0x32e8 ; _btod_etento + 120
        0x0000331a:    4632        2F      MOV      r2,r6
        0x0000331c:    4669        iF      MOV      r1,sp
        0x0000331e:    9809        ..      LDR      r0,[sp,#0x24]
        0x00003320:    2800        .(      CMP      r0,#0
        0x00003322:    a803        ..      ADD      r0,sp,#0xc
        0x00003324:    d002        ..      BEQ      0x332c ; _btod_etento + 188
        0x00003326:    f000fa2e    ....    BL       _btod_ediv ; 0x3786
        0x0000332a:    e001        ..      B        0x3330 ; _btod_etento + 192
        0x0000332c:    f000fa01    ....    BL       _btod_emul ; 0x3732
        0x00003330:    9b0a        ..      LDR      r3,[sp,#0x28]
        0x00003332:    c307        ..      STM      r3!,{r0-r2}
        0x00003334:    b00d        ..      ADD      sp,sp,#0x34
        0x00003336:    bdf0        ..      POP      {r4-r7,pc}
    $d
        0x00003338:    00000f3c    <...    DCD    3900
    $t
    .text
    _btod_d2e
        0x0000333c:    4603        .F      MOV      r3,r0
        0x0000333e:    0040        @.      LSLS     r0,r0,#1
        0x00003340:    460a        .F      MOV      r2,r1
        0x00003342:    b510        ..      PUSH     {r4,lr}
        0x00003344:    0d40        @.      LSRS     r0,r0,#21
        0x00003346:    d00b        ..      BEQ      0x3360 ; _btod_d2e + 36
        0x00003348:    2101        .!      MOVS     r1,#1
        0x0000334a:    07c9        ..      LSLS     r1,r1,#31
        0x0000334c:    240f        .$      MOVS     r4,#0xf
        0x0000334e:    02a4        ..      LSLS     r4,r4,#10
        0x00003350:    1900        ..      ADDS     r0,r0,r4
        0x00003352:    031c        ..      LSLS     r4,r3,#12
        0x00003354:    0864        d.      LSRS     r4,r4,#1
        0x00003356:    4321        !C      ORRS     r1,r1,r4
        0x00003358:    0d54        T.      LSRS     r4,r2,#21
        0x0000335a:    4321        !C      ORRS     r1,r1,r4
        0x0000335c:    02d2        ..      LSLS     r2,r2,#11
        0x0000335e:    e007        ..      B        0x3370 ; _btod_d2e + 52
        0x00003360:    2100        .!      MOVS     r1,#0
        0x00003362:    2001        .       MOVS     r0,#1
        0x00003364:    e7f2        ..      B        0x334c ; _btod_d2e + 16
        0x00003366:    0fd4        ..      LSRS     r4,r2,#31
        0x00003368:    0049        I.      LSLS     r1,r1,#1
        0x0000336a:    4321        !C      ORRS     r1,r1,r4
        0x0000336c:    0052        R.      LSLS     r2,r2,#1
        0x0000336e:    1e40        @.      SUBS     r0,r0,#1
        0x00003370:    2900        .)      CMP      r1,#0
        0x00003372:    daf8        ..      BGE      0x3366 ; _btod_d2e + 42
        0x00003374:    0fdb        ..      LSRS     r3,r3,#31
        0x00003376:    07db        ..      LSLS     r3,r3,#31
        0x00003378:    4318        .C      ORRS     r0,r0,r3
        0x0000337a:    bd10        ..      POP      {r4,pc}
    btod_internal_mul
        0x0000337c:    b5ff        ..      PUSH     {r0-r7,lr}
        0x0000337e:    460d        .F      MOV      r5,r1
        0x00003380:    4614        .F      MOV      r4,r2
        0x00003382:    b085        ..      SUB      sp,sp,#0x14
        0x00003384:    6848        Hh      LDR      r0,[r1,#4]
        0x00003386:    6851        Qh      LDR      r1,[r2,#4]
        0x00003388:    f000facf    ....    BL       __ARM_common_ll_muluu ; 0x392a
        0x0000338c:    9100        ..      STR      r1,[sp,#0]
        0x0000338e:    9001        ..      STR      r0,[sp,#4]
        0x00003390:    68a8        .h      LDR      r0,[r5,#8]
        0x00003392:    68a1        .h      LDR      r1,[r4,#8]
        0x00003394:    f000fac9    ....    BL       __ARM_common_ll_muluu ; 0x392a
        0x00003398:    9102        ..      STR      r1,[sp,#8]
        0x0000339a:    9003        ..      STR      r0,[sp,#0xc]
        0x0000339c:    68a8        .h      LDR      r0,[r5,#8]
        0x0000339e:    6861        ah      LDR      r1,[r4,#4]
        0x000033a0:    f000fac3    ....    BL       __ARM_common_ll_muluu ; 0x392a
        0x000033a4:    9a02        ..      LDR      r2,[sp,#8]
        0x000033a6:    1812        ..      ADDS     r2,r2,r0
        0x000033a8:    4282        .B      CMP      r2,r0
        0x000033aa:    9202        ..      STR      r2,[sp,#8]
        0x000033ac:    d201        ..      BCS      0x33b2 ; btod_internal_mul + 54
        0x000033ae:    2001        .       MOVS     r0,#1
        0x000033b0:    e000        ..      B        0x33b4 ; btod_internal_mul + 56
        0x000033b2:    2000        .       MOVS     r0,#0
        0x000033b4:    9a01        ..      LDR      r2,[sp,#4]
        0x000033b6:    180b        ..      ADDS     r3,r1,r0
        0x000033b8:    18d2        ..      ADDS     r2,r2,r3
        0x000033ba:    2800        .(      CMP      r0,#0
        0x000033bc:    9201        ..      STR      r2,[sp,#4]
        0x000033be:    d002        ..      BEQ      0x33c6 ; btod_internal_mul + 74
        0x000033c0:    428a        .B      CMP      r2,r1
        0x000033c2:    d902        ..      BLS      0x33ca ; btod_internal_mul + 78
        0x000033c4:    e003        ..      B        0x33ce ; btod_internal_mul + 82
        0x000033c6:    428a        .B      CMP      r2,r1
        0x000033c8:    d201        ..      BCS      0x33ce ; btod_internal_mul + 82
        0x000033ca:    2001        .       MOVS     r0,#1
        0x000033cc:    e000        ..      B        0x33d0 ; btod_internal_mul + 84
        0x000033ce:    2000        .       MOVS     r0,#0
        0x000033d0:    9900        ..      LDR      r1,[sp,#0]
        0x000033d2:    1808        ..      ADDS     r0,r1,r0
        0x000033d4:    9000        ..      STR      r0,[sp,#0]
        0x000033d6:    6868        hh      LDR      r0,[r5,#4]
        0x000033d8:    68a1        .h      LDR      r1,[r4,#8]
        0x000033da:    f000faa6    ....    BL       __ARM_common_ll_muluu ; 0x392a
        0x000033de:    9a02        ..      LDR      r2,[sp,#8]
        0x000033e0:    1812        ..      ADDS     r2,r2,r0
        0x000033e2:    4282        .B      CMP      r2,r0
        0x000033e4:    9202        ..      STR      r2,[sp,#8]
        0x000033e6:    d201        ..      BCS      0x33ec ; btod_internal_mul + 112
        0x000033e8:    2001        .       MOVS     r0,#1
        0x000033ea:    e000        ..      B        0x33ee ; btod_internal_mul + 114
        0x000033ec:    2000        .       MOVS     r0,#0
        0x000033ee:    9a01        ..      LDR      r2,[sp,#4]
        0x000033f0:    180b        ..      ADDS     r3,r1,r0
        0x000033f2:    18d2        ..      ADDS     r2,r2,r3
        0x000033f4:    2800        .(      CMP      r0,#0
        0x000033f6:    9201        ..      STR      r2,[sp,#4]
        0x000033f8:    d002        ..      BEQ      0x3400 ; btod_internal_mul + 132
        0x000033fa:    428a        .B      CMP      r2,r1
        0x000033fc:    d902        ..      BLS      0x3404 ; btod_internal_mul + 136
        0x000033fe:    e003        ..      B        0x3408 ; btod_internal_mul + 140
        0x00003400:    428a        .B      CMP      r2,r1
        0x00003402:    d201        ..      BCS      0x3408 ; btod_internal_mul + 140
        0x00003404:    2001        .       MOVS     r0,#1
        0x00003406:    e000        ..      B        0x340a ; btod_internal_mul + 142
        0x00003408:    2000        .       MOVS     r0,#0
        0x0000340a:    9900        ..      LDR      r1,[sp,#0]
        0x0000340c:    1808        ..      ADDS     r0,r1,r0
        0x0000340e:    9000        ..      STR      r0,[sp,#0]
        0x00003410:    6828        (h      LDR      r0,[r5,#0]
        0x00003412:    6821        !h      LDR      r1,[r4,#0]
        0x00003414:    0040        @.      LSLS     r0,r0,#1
        0x00003416:    0049        I.      LSLS     r1,r1,#1
        0x00003418:    0840        @.      LSRS     r0,r0,#1
        0x0000341a:    0849        I.      LSRS     r1,r1,#1
        0x0000341c:    1840        @.      ADDS     r0,r0,r1
        0x0000341e:    49ee        .I      LDR      r1,[pc,#952] ; [0x37d8] = 0xffffc002
        0x00003420:    1847        G.      ADDS     r7,r0,r1
        0x00003422:    e014        ..      B        0x344e ; btod_internal_mul + 210
        0x00003424:    9901        ..      LDR      r1,[sp,#4]
        0x00003426:    0040        @.      LSLS     r0,r0,#1
        0x00003428:    0fc9        ..      LSRS     r1,r1,#31
        0x0000342a:    4308        .C      ORRS     r0,r0,r1
        0x0000342c:    9000        ..      STR      r0,[sp,#0]
        0x0000342e:    9801        ..      LDR      r0,[sp,#4]
        0x00003430:    9902        ..      LDR      r1,[sp,#8]
        0x00003432:    0040        @.      LSLS     r0,r0,#1
        0x00003434:    0fc9        ..      LSRS     r1,r1,#31
        0x00003436:    4308        .C      ORRS     r0,r0,r1
        0x00003438:    9001        ..      STR      r0,[sp,#4]
        0x0000343a:    9802        ..      LDR      r0,[sp,#8]
        0x0000343c:    9903        ..      LDR      r1,[sp,#0xc]
        0x0000343e:    0040        @.      LSLS     r0,r0,#1
        0x00003440:    0fc9        ..      LSRS     r1,r1,#31
        0x00003442:    4308        .C      ORRS     r0,r0,r1
        0x00003444:    9002        ..      STR      r0,[sp,#8]
        0x00003446:    9803        ..      LDR      r0,[sp,#0xc]
        0x00003448:    0040        @.      LSLS     r0,r0,#1
        0x0000344a:    1e7f        ..      SUBS     r7,r7,#1
        0x0000344c:    9003        ..      STR      r0,[sp,#0xc]
        0x0000344e:    9800        ..      LDR      r0,[sp,#0]
        0x00003450:    2800        .(      CMP      r0,#0
        0x00003452:    dae7        ..      BGE      0x3424 ; btod_internal_mul + 168
        0x00003454:    9808        ..      LDR      r0,[sp,#0x20]
        0x00003456:    2800        .(      CMP      r0,#0
        0x00003458:    d001        ..      BEQ      0x345e ; btod_internal_mul + 226
        0x0000345a:    4ee0        .N      LDR      r6,[pc,#896] ; [0x37dc] = 0x3c01
        0x0000345c:    e000        ..      B        0x3460 ; btod_internal_mul + 228
        0x0000345e:    2600        .&      MOVS     r6,#0
        0x00003460:    42b7        .B      CMP      r7,r6
        0x00003462:    da28        (.      BGE      0x34b6 ; btod_internal_mul + 314
        0x00003464:    1bf7        ..      SUBS     r7,r6,r7
        0x00003466:    06f8        ..      LSLS     r0,r7,#27
        0x00003468:    0ec0        ..      LSRS     r0,r0,#27
        0x0000346a:    d015        ..      BEQ      0x3498 ; btod_internal_mul + 284
        0x0000346c:    9b02        ..      LDR      r3,[sp,#8]
        0x0000346e:    2120         !      MOVS     r1,#0x20
        0x00003470:    1a09        ..      SUBS     r1,r1,r0
        0x00003472:    9a03        ..      LDR      r2,[sp,#0xc]
        0x00003474:    408b        .@      LSLS     r3,r3,r1
        0x00003476:    431a        .C      ORRS     r2,r2,r3
        0x00003478:    9203        ..      STR      r2,[sp,#0xc]
        0x0000347a:    9a02        ..      LDR      r2,[sp,#8]
        0x0000347c:    9b01        ..      LDR      r3,[sp,#4]
        0x0000347e:    40c2        .@      LSRS     r2,r2,r0
        0x00003480:    408b        .@      LSLS     r3,r3,r1
        0x00003482:    431a        .C      ORRS     r2,r2,r3
        0x00003484:    9202        ..      STR      r2,[sp,#8]
        0x00003486:    9a01        ..      LDR      r2,[sp,#4]
        0x00003488:    9b00        ..      LDR      r3,[sp,#0]
        0x0000348a:    40c2        .@      LSRS     r2,r2,r0
        0x0000348c:    408b        .@      LSLS     r3,r3,r1
        0x0000348e:    9900        ..      LDR      r1,[sp,#0]
        0x00003490:    431a        .C      ORRS     r2,r2,r3
        0x00003492:    9201        ..      STR      r2,[sp,#4]
        0x00003494:    40c1        .@      LSRS     r1,r1,r0
        0x00003496:    9100        ..      STR      r1,[sp,#0]
        0x00003498:    117a        z.      ASRS     r2,r7,#5
        0x0000349a:    d00b        ..      BEQ      0x34b4 ; btod_internal_mul + 312
        0x0000349c:    466b        kF      MOV      r3,sp
        0x0000349e:    2003        .       MOVS     r0,#3
        0x000034a0:    1a81        ..      SUBS     r1,r0,r2
        0x000034a2:    d501        ..      BPL      0x34a8 ; btod_internal_mul + 300
        0x000034a4:    2100        .!      MOVS     r1,#0
        0x000034a6:    e001        ..      B        0x34ac ; btod_internal_mul + 304
        0x000034a8:    0089        ..      LSLS     r1,r1,#2
        0x000034aa:    5859        YX      LDR      r1,[r3,r1]
        0x000034ac:    0087        ..      LSLS     r7,r0,#2
        0x000034ae:    1e40        @.      SUBS     r0,r0,#1
        0x000034b0:    51d9        .Q      STR      r1,[r3,r7]
        0x000034b2:    d5f5        ..      BPL      0x34a0 ; btod_internal_mul + 292
        0x000034b4:    4637        7F      MOV      r7,r6
        0x000034b6:    9803        ..      LDR      r0,[sp,#0xc]
        0x000034b8:    9902        ..      LDR      r1,[sp,#8]
        0x000034ba:    2800        .(      CMP      r0,#0
        0x000034bc:    d000        ..      BEQ      0x34c0 ; btod_internal_mul + 324
        0x000034be:    2001        .       MOVS     r0,#1
        0x000034c0:    4301        .C      ORRS     r1,r1,r0
        0x000034c2:    9808        ..      LDR      r0,[sp,#0x20]
        0x000034c4:    9102        ..      STR      r1,[sp,#8]
        0x000034c6:    2800        .(      CMP      r0,#0
        0x000034c8:    4608        .F      MOV      r0,r1
        0x000034ca:    d00c        ..      BEQ      0x34e6 ; btod_internal_mul + 362
        0x000034cc:    2800        .(      CMP      r0,#0
        0x000034ce:    d000        ..      BEQ      0x34d2 ; btod_internal_mul + 342
        0x000034d0:    2001        .       MOVS     r0,#1
        0x000034d2:    9901        ..      LDR      r1,[sp,#4]
        0x000034d4:    9a01        ..      LDR      r2,[sp,#4]
        0x000034d6:    0549        I.      LSLS     r1,r1,#21
        0x000034d8:    4308        .C      ORRS     r0,r0,r1
        0x000034da:    2101        .!      MOVS     r1,#1
        0x000034dc:    0ad2        ..      LSRS     r2,r2,#11
        0x000034de:    02c9        ..      LSLS     r1,r1,#11
        0x000034e0:    02d2        ..      LSLS     r2,r2,#11
        0x000034e2:    9201        ..      STR      r2,[sp,#4]
        0x000034e4:    e000        ..      B        0x34e8 ; btod_internal_mul + 364
        0x000034e6:    2101        .!      MOVS     r1,#1
        0x000034e8:    9b0e        ..      LDR      r3,[sp,#0x38]
        0x000034ea:    2201        ."      MOVS     r2,#1
        0x000034ec:    07d2        ..      LSLS     r2,r2,#31
        0x000034ee:    2b01        .+      CMP      r3,#1
        0x000034f0:    d002        ..      BEQ      0x34f8 ; btod_internal_mul + 380
        0x000034f2:    2b00        .+      CMP      r3,#0
        0x000034f4:    d003        ..      BEQ      0x34fe ; btod_internal_mul + 386
        0x000034f6:    e013        ..      B        0x3520 ; btod_internal_mul + 420
        0x000034f8:    2800        .(      CMP      r0,#0
        0x000034fa:    d107        ..      BNE      0x350c ; btod_internal_mul + 400
        0x000034fc:    e016        ..      B        0x352c ; btod_internal_mul + 432
        0x000034fe:    4290        .B      CMP      r0,r2
        0x00003500:    d804        ..      BHI      0x350c ; btod_internal_mul + 400
        0x00003502:    4290        .B      CMP      r0,r2
        0x00003504:    d10c        ..      BNE      0x3520 ; btod_internal_mul + 420
        0x00003506:    9b01        ..      LDR      r3,[sp,#4]
        0x00003508:    420b        .B      TST      r3,r1
        0x0000350a:    d009        ..      BEQ      0x3520 ; btod_internal_mul + 420
        0x0000350c:    9b01        ..      LDR      r3,[sp,#4]
        0x0000350e:    1859        Y.      ADDS     r1,r3,r1
        0x00003510:    9101        ..      STR      r1,[sp,#4]
        0x00003512:    d105        ..      BNE      0x3520 ; btod_internal_mul + 420
        0x00003514:    9900        ..      LDR      r1,[sp,#0]
        0x00003516:    1c49        I.      ADDS     r1,r1,#1
        0x00003518:    9100        ..      STR      r1,[sp,#0]
        0x0000351a:    d101        ..      BNE      0x3520 ; btod_internal_mul + 420
        0x0000351c:    1c7f        ..      ADDS     r7,r7,#1
        0x0000351e:    9200        ..      STR      r2,[sp,#0]
        0x00003520:    2800        .(      CMP      r0,#0
        0x00003522:    d003        ..      BEQ      0x352c ; btod_internal_mul + 432
        0x00003524:    2110        .!      MOVS     r1,#0x10
        0x00003526:    4608        .F      MOV      r0,r1
        0x00003528:    2000        .       MOVS     r0,#0
        0x0000352a:    46c0        .F      MOV      r8,r8
        0x0000352c:    6828        (h      LDR      r0,[r5,#0]
        0x0000352e:    6821        !h      LDR      r1,[r4,#0]
        0x00003530:    9b01        ..      LDR      r3,[sp,#4]
        0x00003532:    9a00        ..      LDR      r2,[sp,#0]
        0x00003534:    4048        H@      EORS     r0,r0,r1
        0x00003536:    0fc1        ..      LSRS     r1,r0,#31
        0x00003538:    9805        ..      LDR      r0,[sp,#0x14]
        0x0000353a:    07c9        ..      LSLS     r1,r1,#31
        0x0000353c:    4339        9C      ORRS     r1,r1,r7
        0x0000353e:    c00e        ..      STM      r0!,{r1-r3}
        0x00003540:    b009        ..      ADD      sp,sp,#0x24
        0x00003542:    bdf0        ..      POP      {r4-r7,pc}
    btod_internal_div
        0x00003544:    b5ff        ..      PUSH     {r0-r7,lr}
        0x00003546:    b087        ..      SUB      sp,sp,#0x1c
        0x00003548:    9a09        ..      LDR      r2,[sp,#0x24]
        0x0000354a:    9808        ..      LDR      r0,[sp,#0x20]
        0x0000354c:    9908        ..      LDR      r1,[sp,#0x20]
        0x0000354e:    6853        Sh      LDR      r3,[r2,#4]
        0x00003550:    6892        .h      LDR      r2,[r2,#8]
        0x00003552:    6840        @h      LDR      r0,[r0,#4]
        0x00003554:    6889        .h      LDR      r1,[r1,#8]
        0x00003556:    4696        .F      MOV      lr,r2
        0x00003558:    2200        ."      MOVS     r2,#0
        0x0000355a:    9303        ..      STR      r3,[sp,#0xc]
        0x0000355c:    4617        .F      MOV      r7,r2
        0x0000355e:    4694        .F      MOV      r12,r2
        0x00003560:    9a08        ..      LDR      r2,[sp,#0x20]
        0x00003562:    6812        .h      LDR      r2,[r2,#0]
        0x00003564:    0053        S.      LSLS     r3,r2,#1
        0x00003566:    9a09        ..      LDR      r2,[sp,#0x24]
        0x00003568:    085b        [.      LSRS     r3,r3,#1
        0x0000356a:    6812        .h      LDR      r2,[r2,#0]
        0x0000356c:    0052        R.      LSLS     r2,r2,#1
        0x0000356e:    0852        R.      LSRS     r2,r2,#1
        0x00003570:    1a9a        ..      SUBS     r2,r3,r2
        0x00003572:    4b9b        .K      LDR      r3,[pc,#620] ; [0x37e0] = 0x3fff
        0x00003574:    18d4        ..      ADDS     r4,r2,r3
        0x00003576:    9a0a        ..      LDR      r2,[sp,#0x28]
        0x00003578:    2a00        .*      CMP      r2,#0
        0x0000357a:    d001        ..      BEQ      0x3580 ; btod_internal_div + 60
        0x0000357c:    2235        5"      MOVS     r2,#0x35
        0x0000357e:    e000        ..      B        0x3582 ; btod_internal_div + 62
        0x00003580:    2240        @"      MOVS     r2,#0x40
        0x00003582:    9206        ..      STR      r2,[sp,#0x18]
        0x00003584:    2200        ."      MOVS     r2,#0
        0x00003586:    2301        .#      MOVS     r3,#1
        0x00003588:    4615        .F      MOV      r5,r2
        0x0000358a:    9204        ..      STR      r2,[sp,#0x10]
        0x0000358c:    07db        ..      LSLS     r3,r3,#31
        0x0000358e:    9305        ..      STR      r3,[sp,#0x14]
        0x00003590:    e024        $.      B        0x35dc ; btod_internal_div + 152
        0x00003592:    2d00        .-      CMP      r5,#0
        0x00003594:    d105        ..      BNE      0x35a2 ; btod_internal_div + 94
        0x00003596:    4675        uF      MOV      r5,lr
        0x00003598:    4603        .F      MOV      r3,r0
        0x0000359a:    9e03        ..      LDR      r6,[sp,#0xc]
        0x0000359c:    1b4d        M.      SUBS     r5,r1,r5
        0x0000359e:    41b3        .A      SBCS     r3,r3,r6
        0x000035a0:    d309        ..      BCC      0x35b6 ; btod_internal_div + 114
        0x000035a2:    4675        uF      MOV      r5,lr
        0x000035a4:    4666        fF      MOV      r6,r12
        0x000035a6:    9b03        ..      LDR      r3,[sp,#0xc]
        0x000035a8:    1b49        I.      SUBS     r1,r1,r5
        0x000035aa:    9d04        ..      LDR      r5,[sp,#0x10]
        0x000035ac:    4198        .A      SBCS     r0,r0,r3
        0x000035ae:    9b05        ..      LDR      r3,[sp,#0x14]
        0x000035b0:    1975        u.      ADDS     r5,r6,r5
        0x000035b2:    46ac        .F      MOV      r12,r5
        0x000035b4:    415f        _A      ADCS     r7,r7,r3
        0x000035b6:    4663        cF      MOV      r3,r12
        0x000035b8:    433b        ;C      ORRS     r3,r3,r7
        0x000035ba:    d008        ..      BEQ      0x35ce ; btod_internal_div + 138
        0x000035bc:    9b05        ..      LDR      r3,[sp,#0x14]
        0x000035be:    9e04        ..      LDR      r6,[sp,#0x10]
        0x000035c0:    07dd        ..      LSLS     r5,r3,#31
        0x000035c2:    0876        v.      LSRS     r6,r6,#1
        0x000035c4:    432e        .C      ORRS     r6,r6,r5
        0x000035c6:    085b        [.      LSRS     r3,r3,#1
        0x000035c8:    9604        ..      STR      r6,[sp,#0x10]
        0x000035ca:    9305        ..      STR      r3,[sp,#0x14]
        0x000035cc:    e001        ..      B        0x35d2 ; btod_internal_div + 142
        0x000035ce:    1e64        d.      SUBS     r4,r4,#1
        0x000035d0:    1e52        R.      SUBS     r2,r2,#1
        0x000035d2:    0fc5        ..      LSRS     r5,r0,#31
        0x000035d4:    07ed        ..      LSLS     r5,r5,#31
        0x000035d6:    1849        I.      ADDS     r1,r1,r1
        0x000035d8:    4140        @A      ADCS     r0,r0,r0
        0x000035da:    1c52        R.      ADDS     r2,r2,#1
        0x000035dc:    9b06        ..      LDR      r3,[sp,#0x18]
        0x000035de:    429a        .B      CMP      r2,r3
        0x000035e0:    dbd7        ..      BLT      0x3592 ; btod_internal_div + 78
        0x000035e2:    2d00        .-      CMP      r5,#0
        0x000035e4:    d104        ..      BNE      0x35f0 ; btod_internal_div + 172
        0x000035e6:    4675        uF      MOV      r5,lr
        0x000035e8:    9a03        ..      LDR      r2,[sp,#0xc]
        0x000035ea:    1a6b        k.      SUBS     r3,r5,r1
        0x000035ec:    4182        .A      SBCS     r2,r2,r0
        0x000035ee:    d201        ..      BCS      0x35f4 ; btod_internal_div + 176
        0x000035f0:    2003        .       MOVS     r0,#3
        0x000035f2:    e00c        ..      B        0x360e ; btod_internal_div + 202
        0x000035f4:    9a03        ..      LDR      r2,[sp,#0xc]
        0x000035f6:    460b        .F      MOV      r3,r1
        0x000035f8:    406b        k@      EORS     r3,r3,r5
        0x000035fa:    4042        B@      EORS     r2,r2,r0
        0x000035fc:    4313        .C      ORRS     r3,r3,r2
        0x000035fe:    d101        ..      BNE      0x3604 ; btod_internal_div + 192
        0x00003600:    2002        .       MOVS     r0,#2
        0x00003602:    e004        ..      B        0x360e ; btod_internal_div + 202
        0x00003604:    4301        .C      ORRS     r1,r1,r0
        0x00003606:    d001        ..      BEQ      0x360c ; btod_internal_div + 200
        0x00003608:    2001        .       MOVS     r0,#1
        0x0000360a:    e000        ..      B        0x360e ; btod_internal_div + 202
        0x0000360c:    2000        .       MOVS     r0,#0
        0x0000360e:    4661        aF      MOV      r1,r12
        0x00003610:    9101        ..      STR      r1,[sp,#4]
        0x00003612:    2100        .!      MOVS     r1,#0
        0x00003614:    9700        ..      STR      r7,[sp,#0]
        0x00003616:    9102        ..      STR      r1,[sp,#8]
        0x00003618:    990a        ..      LDR      r1,[sp,#0x28]
        0x0000361a:    2900        .)      CMP      r1,#0
        0x0000361c:    d005        ..      BEQ      0x362a ; btod_internal_div + 230
        0x0000361e:    4661        aF      MOV      r1,r12
        0x00003620:    0240        @.      LSLS     r0,r0,#9
        0x00003622:    4301        .C      ORRS     r1,r1,r0
        0x00003624:    4b6d        mK      LDR      r3,[pc,#436] ; [0x37dc] = 0x3c01
        0x00003626:    9101        ..      STR      r1,[sp,#4]
        0x00003628:    e002        ..      B        0x3630 ; btod_internal_div + 236
        0x0000362a:    0780        ..      LSLS     r0,r0,#30
        0x0000362c:    2300        .#      MOVS     r3,#0
        0x0000362e:    9002        ..      STR      r0,[sp,#8]
        0x00003630:    429c        .B      CMP      r4,r3
        0x00003632:    da3a        :.      BGE      0x36aa ; btod_internal_div + 358
        0x00003634:    1b1a        ..      SUBS     r2,r3,r4
        0x00003636:    06d0        ..      LSLS     r0,r2,#27
        0x00003638:    0ec0        ..      LSRS     r0,r0,#27
        0x0000363a:    d015        ..      BEQ      0x3668 ; btod_internal_div + 292
        0x0000363c:    9d02        ..      LDR      r5,[sp,#8]
        0x0000363e:    2120         !      MOVS     r1,#0x20
        0x00003640:    9c01        ..      LDR      r4,[sp,#4]
        0x00003642:    1a09        ..      SUBS     r1,r1,r0
        0x00003644:    40c5        .@      LSRS     r5,r5,r0
        0x00003646:    408c        .@      LSLS     r4,r4,r1
        0x00003648:    4325        %C      ORRS     r5,r5,r4
        0x0000364a:    9c02        ..      LDR      r4,[sp,#8]
        0x0000364c:    408c        .@      LSLS     r4,r4,r1
        0x0000364e:    d000        ..      BEQ      0x3652 ; btod_internal_div + 270
        0x00003650:    2401        .$      MOVS     r4,#1
        0x00003652:    4325        %C      ORRS     r5,r5,r4
        0x00003654:    9c01        ..      LDR      r4,[sp,#4]
        0x00003656:    9502        ..      STR      r5,[sp,#8]
        0x00003658:    463d        =F      MOV      r5,r7
        0x0000365a:    40c4        .@      LSRS     r4,r4,r0
        0x0000365c:    408d        .@      LSLS     r5,r5,r1
        0x0000365e:    4639        9F      MOV      r1,r7
        0x00003660:    432c        ,C      ORRS     r4,r4,r5
        0x00003662:    40c1        .@      LSRS     r1,r1,r0
        0x00003664:    9401        ..      STR      r4,[sp,#4]
        0x00003666:    9100        ..      STR      r1,[sp,#0]
        0x00003668:    1154        T.      ASRS     r4,r2,#5
        0x0000366a:    d01d        ..      BEQ      0x36a8 ; btod_internal_div + 356
        0x0000366c:    466d        mF      MOV      r5,sp
        0x0000366e:    2102        .!      MOVS     r1,#2
        0x00003670:    2200        ."      MOVS     r2,#0
        0x00003672:    2902        .)      CMP      r1,#2
        0x00003674:    d10c        ..      BNE      0x3690 ; btod_internal_div + 332
        0x00003676:    2003        .       MOVS     r0,#3
        0x00003678:    1b00        ..      SUBS     r0,r0,r4
        0x0000367a:    e007        ..      B        0x368c ; btod_internal_div + 328
        0x0000367c:    2800        .(      CMP      r0,#0
        0x0000367e:    db04        ..      BLT      0x368a ; btod_internal_div + 326
        0x00003680:    0086        ..      LSLS     r6,r0,#2
        0x00003682:    59ae        .Y      LDR      r6,[r5,r6]
        0x00003684:    2e00        ..      CMP      r6,#0
        0x00003686:    d000        ..      BEQ      0x368a ; btod_internal_div + 326
        0x00003688:    2201        ."      MOVS     r2,#1
        0x0000368a:    1c40        @.      ADDS     r0,r0,#1
        0x0000368c:    2803        .(      CMP      r0,#3
        0x0000368e:    dbf5        ..      BLT      0x367c ; btod_internal_div + 312
        0x00003690:    1b08        ..      SUBS     r0,r1,r4
        0x00003692:    d502        ..      BPL      0x369a ; btod_internal_div + 342
        0x00003694:    0088        ..      LSLS     r0,r1,#2
        0x00003696:    502a        *P      STR      r2,[r5,r0]
        0x00003698:    e004        ..      B        0x36a4 ; btod_internal_div + 352
        0x0000369a:    0080        ..      LSLS     r0,r0,#2
        0x0000369c:    5828        (X      LDR      r0,[r5,r0]
        0x0000369e:    4310        .C      ORRS     r0,r0,r2
        0x000036a0:    008a        ..      LSLS     r2,r1,#2
        0x000036a2:    50a8        .P      STR      r0,[r5,r2]
        0x000036a4:    1e49        I.      SUBS     r1,r1,#1
        0x000036a6:    d5e3        ..      BPL      0x3670 ; btod_internal_div + 300
        0x000036a8:    461c        .F      MOV      r4,r3
        0x000036aa:    980a        ..      LDR      r0,[sp,#0x28]
        0x000036ac:    2800        .(      CMP      r0,#0
        0x000036ae:    9802        ..      LDR      r0,[sp,#8]
        0x000036b0:    d00c        ..      BEQ      0x36cc ; btod_internal_div + 392
        0x000036b2:    2800        .(      CMP      r0,#0
        0x000036b4:    d000        ..      BEQ      0x36b8 ; btod_internal_div + 372
        0x000036b6:    2001        .       MOVS     r0,#1
        0x000036b8:    9901        ..      LDR      r1,[sp,#4]
        0x000036ba:    9a01        ..      LDR      r2,[sp,#4]
        0x000036bc:    0549        I.      LSLS     r1,r1,#21
        0x000036be:    4308        .C      ORRS     r0,r0,r1
        0x000036c0:    2101        .!      MOVS     r1,#1
        0x000036c2:    0ad2        ..      LSRS     r2,r2,#11
        0x000036c4:    02c9        ..      LSLS     r1,r1,#11
        0x000036c6:    02d2        ..      LSLS     r2,r2,#11
        0x000036c8:    9201        ..      STR      r2,[sp,#4]
        0x000036ca:    e000        ..      B        0x36ce ; btod_internal_div + 394
        0x000036cc:    2101        .!      MOVS     r1,#1
        0x000036ce:    9b10        ..      LDR      r3,[sp,#0x40]
        0x000036d0:    2201        ."      MOVS     r2,#1
        0x000036d2:    07d2        ..      LSLS     r2,r2,#31
        0x000036d4:    2b01        .+      CMP      r3,#1
        0x000036d6:    d002        ..      BEQ      0x36de ; btod_internal_div + 410
        0x000036d8:    2b00        .+      CMP      r3,#0
        0x000036da:    d003        ..      BEQ      0x36e4 ; btod_internal_div + 416
        0x000036dc:    e013        ..      B        0x3706 ; btod_internal_div + 450
        0x000036de:    2800        .(      CMP      r0,#0
        0x000036e0:    d107        ..      BNE      0x36f2 ; btod_internal_div + 430
        0x000036e2:    e016        ..      B        0x3712 ; btod_internal_div + 462
        0x000036e4:    4290        .B      CMP      r0,r2
        0x000036e6:    d804        ..      BHI      0x36f2 ; btod_internal_div + 430
        0x000036e8:    4290        .B      CMP      r0,r2
        0x000036ea:    d10c        ..      BNE      0x3706 ; btod_internal_div + 450
        0x000036ec:    9b01        ..      LDR      r3,[sp,#4]
        0x000036ee:    420b        .B      TST      r3,r1
        0x000036f0:    d009        ..      BEQ      0x3706 ; btod_internal_div + 450
        0x000036f2:    9b01        ..      LDR      r3,[sp,#4]
        0x000036f4:    1859        Y.      ADDS     r1,r3,r1
        0x000036f6:    9101        ..      STR      r1,[sp,#4]
        0x000036f8:    d105        ..      BNE      0x3706 ; btod_internal_div + 450
        0x000036fa:    9900        ..      LDR      r1,[sp,#0]
        0x000036fc:    1c49        I.      ADDS     r1,r1,#1
        0x000036fe:    9100        ..      STR      r1,[sp,#0]
        0x00003700:    d101        ..      BNE      0x3706 ; btod_internal_div + 450
        0x00003702:    1c64        d.      ADDS     r4,r4,#1
        0x00003704:    9200        ..      STR      r2,[sp,#0]
        0x00003706:    2800        .(      CMP      r0,#0
        0x00003708:    d003        ..      BEQ      0x3712 ; btod_internal_div + 462
        0x0000370a:    2110        .!      MOVS     r1,#0x10
        0x0000370c:    4608        .F      MOV      r0,r1
        0x0000370e:    2000        .       MOVS     r0,#0
        0x00003710:    46c0        .F      MOV      r8,r8
        0x00003712:    9808        ..      LDR      r0,[sp,#0x20]
        0x00003714:    9909        ..      LDR      r1,[sp,#0x24]
        0x00003716:    9a01        ..      LDR      r2,[sp,#4]
        0x00003718:    6800        .h      LDR      r0,[r0,#0]
        0x0000371a:    6809        .h      LDR      r1,[r1,#0]
        0x0000371c:    4048        H@      EORS     r0,r0,r1
        0x0000371e:    9900        ..      LDR      r1,[sp,#0]
        0x00003720:    0fc3        ..      LSRS     r3,r0,#31
        0x00003722:    9807        ..      LDR      r0,[sp,#0x1c]
        0x00003724:    07db        ..      LSLS     r3,r3,#31
        0x00003726:    4323        #C      ORRS     r3,r3,r4
        0x00003728:    6003        .`      STR      r3,[r0,#0]
        0x0000372a:    6082        .`      STR      r2,[r0,#8]
        0x0000372c:    6041        A`      STR      r1,[r0,#4]
        0x0000372e:    b00b        ..      ADD      sp,sp,#0x2c
        0x00003730:    bdf0        ..      POP      {r4-r7,pc}
    _btod_emul
        0x00003732:    b51f        ..      PUSH     {r0-r4,lr}
        0x00003734:    2300        .#      MOVS     r3,#0
        0x00003736:    9200        ..      STR      r2,[sp,#0]
        0x00003738:    460a        .F      MOV      r2,r1
        0x0000373a:    4601        .F      MOV      r1,r0
        0x0000373c:    a801        ..      ADD      r0,sp,#4
        0x0000373e:    f7fffe1d    ....    BL       btod_internal_mul ; 0x337c
        0x00003742:    a801        ..      ADD      r0,sp,#4
        0x00003744:    c807        ..      LDM      r0,{r0-r2}
        0x00003746:    b004        ..      ADD      sp,sp,#0x10
        0x00003748:    bd10        ..      POP      {r4,pc}
    _btod_emuld
        0x0000374a:    b51f        ..      PUSH     {r0-r4,lr}
        0x0000374c:    2301        .#      MOVS     r3,#1
        0x0000374e:    9200        ..      STR      r2,[sp,#0]
        0x00003750:    460a        .F      MOV      r2,r1
        0x00003752:    4601        .F      MOV      r1,r0
        0x00003754:    a801        ..      ADD      r0,sp,#4
        0x00003756:    f7fffe11    ....    BL       btod_internal_mul ; 0x337c
        0x0000375a:    a801        ..      ADD      r0,sp,#4
        0x0000375c:    240f        .$      MOVS     r4,#0xf
        0x0000375e:    c807        ..      LDM      r0,{r0-r2}
        0x00003760:    02a4        ..      LSLS     r4,r4,#10
        0x00003762:    0fc3        ..      LSRS     r3,r0,#31
        0x00003764:    0040        @.      LSLS     r0,r0,#1
        0x00003766:    07db        ..      LSLS     r3,r3,#31
        0x00003768:    0840        @.      LSRS     r0,r0,#1
        0x0000376a:    1b00        ..      SUBS     r0,r0,r4
        0x0000376c:    2900        .)      CMP      r1,#0
        0x0000376e:    db00        ..      BLT      0x3772 ; _btod_emuld + 40
        0x00003770:    2000        .       MOVS     r0,#0
        0x00003772:    0049        I.      LSLS     r1,r1,#1
        0x00003774:    0500        ..      LSLS     r0,r0,#20
        0x00003776:    0849        I.      LSRS     r1,r1,#1
        0x00003778:    0acc        ..      LSRS     r4,r1,#11
        0x0000377a:    4320         C      ORRS     r0,r0,r4
        0x0000377c:    0549        I.      LSLS     r1,r1,#21
        0x0000377e:    4318        .C      ORRS     r0,r0,r3
        0x00003780:    0ad2        ..      LSRS     r2,r2,#11
        0x00003782:    4311        .C      ORRS     r1,r1,r2
        0x00003784:    e7df        ..      B        0x3746 ; _btod_emul + 20
    _btod_ediv
        0x00003786:    b51f        ..      PUSH     {r0-r4,lr}
        0x00003788:    2300        .#      MOVS     r3,#0
        0x0000378a:    9200        ..      STR      r2,[sp,#0]
        0x0000378c:    460a        .F      MOV      r2,r1
        0x0000378e:    4601        .F      MOV      r1,r0
        0x00003790:    a801        ..      ADD      r0,sp,#4
        0x00003792:    f7fffed7    ....    BL       btod_internal_div ; 0x3544
        0x00003796:    a801        ..      ADD      r0,sp,#4
        0x00003798:    c807        ..      LDM      r0,{r0-r2}
        0x0000379a:    e7d4        ..      B        0x3746 ; _btod_emul + 20
    _btod_edivd
        0x0000379c:    b51f        ..      PUSH     {r0-r4,lr}
        0x0000379e:    2301        .#      MOVS     r3,#1
        0x000037a0:    9200        ..      STR      r2,[sp,#0]
        0x000037a2:    460a        .F      MOV      r2,r1
        0x000037a4:    4601        .F      MOV      r1,r0
        0x000037a6:    a801        ..      ADD      r0,sp,#4
        0x000037a8:    f7fffecc    ....    BL       btod_internal_div ; 0x3544
        0x000037ac:    a801        ..      ADD      r0,sp,#4
        0x000037ae:    240f        .$      MOVS     r4,#0xf
        0x000037b0:    c807        ..      LDM      r0,{r0-r2}
        0x000037b2:    02a4        ..      LSLS     r4,r4,#10
        0x000037b4:    0fc3        ..      LSRS     r3,r0,#31
        0x000037b6:    0040        @.      LSLS     r0,r0,#1
        0x000037b8:    07db        ..      LSLS     r3,r3,#31
        0x000037ba:    0840        @.      LSRS     r0,r0,#1
        0x000037bc:    1b00        ..      SUBS     r0,r0,r4
        0x000037be:    2900        .)      CMP      r1,#0
        0x000037c0:    db00        ..      BLT      0x37c4 ; _btod_edivd + 40
        0x000037c2:    2000        .       MOVS     r0,#0
        0x000037c4:    0049        I.      LSLS     r1,r1,#1
        0x000037c6:    0500        ..      LSLS     r0,r0,#20
        0x000037c8:    0849        I.      LSRS     r1,r1,#1
        0x000037ca:    0acc        ..      LSRS     r4,r1,#11
        0x000037cc:    4320         C      ORRS     r0,r0,r4
        0x000037ce:    0549        I.      LSLS     r1,r1,#21
        0x000037d0:    4318        .C      ORRS     r0,r0,r3
        0x000037d2:    0ad2        ..      LSRS     r2,r2,#11
        0x000037d4:    4311        .C      ORRS     r1,r1,r2
        0x000037d6:    e7b6        ..      B        0x3746 ; _btod_emul + 20
    $d
        0x000037d8:    ffffc002    ....    DCD    4294950914
        0x000037dc:    00003c01    .<..    DCD    15361
        0x000037e0:    00003fff    .?..    DCD    16383
    $t
    .text
    __ARM_scalbn
        0x000037e4:    b570        p.      PUSH     {r4-r6,lr}
        0x000037e6:    4606        .F      MOV      r6,r0
        0x000037e8:    0048        H.      LSLS     r0,r1,#1
        0x000037ea:    0d44        D.      LSRS     r4,r0,#21
        0x000037ec:    4b11        .K      LDR      r3,[pc,#68] ; [0x3834] = 0x7ff
        0x000037ee:    2000        .       MOVS     r0,#0
        0x000037f0:    2c00        .,      CMP      r4,#0
        0x000037f2:    d00a        ..      BEQ      0x380a ; __ARM_scalbn + 38
        0x000037f4:    4063        c@      EORS     r3,r3,r4
        0x000037f6:    d008        ..      BEQ      0x380a ; __ARM_scalbn + 38
        0x000037f8:    429a        .B      CMP      r2,r3
        0x000037fa:    da06        ..      BGE      0x380a ; __ARM_scalbn + 38
        0x000037fc:    4265        eB      RSBS     r5,r4,#0
        0x000037fe:    42aa        .B      CMP      r2,r5
        0x00003800:    dd03        ..      BLE      0x380a ; __ARM_scalbn + 38
        0x00003802:    0512        ..      LSLS     r2,r2,#20
        0x00003804:    1980        ..      ADDS     r0,r0,r6
        0x00003806:    4151        QA      ADCS     r1,r1,r2
        0x00003808:    bd70        p.      POP      {r4-r6,pc}
        0x0000380a:    0fcd        ..      LSRS     r5,r1,#31
        0x0000380c:    07ed        ..      LSLS     r5,r5,#31
        0x0000380e:    2c00        .,      CMP      r4,#0
        0x00003810:    d005        ..      BEQ      0x381e ; __ARM_scalbn + 58
        0x00003812:    2b00        .+      CMP      r3,#0
        0x00003814:    d005        ..      BEQ      0x3822 ; __ARM_scalbn + 62
        0x00003816:    2a00        .*      CMP      r2,#0
        0x00003818:    db01        ..      BLT      0x381e ; __ARM_scalbn + 58
        0x0000381a:    4907        .I      LDR      r1,[pc,#28] ; [0x3838] = 0x7ff00000
        0x0000381c:    430d        .C      ORRS     r5,r5,r1
        0x0000381e:    4629        )F      MOV      r1,r5
        0x00003820:    bd70        p.      POP      {r4-r6,pc}
        0x00003822:    4630        0F      MOV      r0,r6
        0x00003824:    030a        ..      LSLS     r2,r1,#12
        0x00003826:    4310        .C      ORRS     r0,r0,r2
        0x00003828:    d002        ..      BEQ      0x3830 ; __ARM_scalbn + 76
        0x0000382a:    2000        .       MOVS     r0,#0
        0x0000382c:    4903        .I      LDR      r1,[pc,#12] ; [0x383c] = 0x7ff80000
        0x0000382e:    bd70        p.      POP      {r4-r6,pc}
        0x00003830:    4630        0F      MOV      r0,r6
        0x00003832:    bd70        p.      POP      {r4-r6,pc}
    $d
        0x00003834:    000007ff    ....    DCD    2047
        0x00003838:    7ff00000    ....    DCD    2146435072
        0x0000383c:    7ff80000    ....    DCD    2146959360
    $t
    .text
    __user_libspace
    __user_perproc_libspace
    __user_perthread_libspace
        0x00003840:    4800        .H      LDR      r0,[pc,#0] ; [0x3844] = 0x200000a4
        0x00003842:    4770        pG      BX       lr
    $d
        0x00003844:    200000a4    ...     DCD    536871076
    $t
    .text
    __user_setup_stackheap
        0x00003848:    4675        uF      MOV      r5,lr
        0x0000384a:    f7fffff9    ....    BL       __user_libspace ; 0x3840
        0x0000384e:    46ae        .F      MOV      lr,r5
        0x00003850:    0005        ..      MOVS     r5,r0
        0x00003852:    4669        iF      MOV      r1,sp
        0x00003854:    4653        SF      MOV      r3,r10
        0x00003856:    08c0        ..      LSRS     r0,r0,#3
        0x00003858:    00c0        ..      LSLS     r0,r0,#3
        0x0000385a:    4685        .F      MOV      sp,r0
        0x0000385c:    b018        ..      ADD      sp,sp,#0x60
        0x0000385e:    b520         .      PUSH     {r5,lr}
        0x00003860:    f7fcfe1a    ....    BL       __user_initial_stackheap ; 0x498
        0x00003864:    bc60        `.      POP      {r5,r6}
        0x00003866:    2700        .'      MOVS     r7,#0
        0x00003868:    0849        I.      LSRS     r1,r1,#1
        0x0000386a:    46b6        .F      MOV      lr,r6
        0x0000386c:    2600        .&      MOVS     r6,#0
        0x0000386e:    c5c0        ..      STM      r5!,{r6,r7}
        0x00003870:    c5c0        ..      STM      r5!,{r6,r7}
        0x00003872:    c5c0        ..      STM      r5!,{r6,r7}
        0x00003874:    c5c0        ..      STM      r5!,{r6,r7}
        0x00003876:    c5c0        ..      STM      r5!,{r6,r7}
        0x00003878:    c5c0        ..      STM      r5!,{r6,r7}
        0x0000387a:    c5c0        ..      STM      r5!,{r6,r7}
        0x0000387c:    c5c0        ..      STM      r5!,{r6,r7}
        0x0000387e:    3d40        @=      SUBS     r5,r5,#0x40
        0x00003880:    0049        I.      LSLS     r1,r1,#1
        0x00003882:    468d        .F      MOV      sp,r1
        0x00003884:    4770        pG      BX       lr
    .text
    exit
        0x00003886:    4604        .F      MOV      r4,r0
        0x00003888:    46c0        .F      MOV      r8,r8
        0x0000388a:    46c0        .F      MOV      r8,r8
        0x0000388c:    4620         F      MOV      r0,r4
        0x0000388e:    f7fcfc79    ..y.    BL       __rt_exit ; 0x184
        0x00003892:    0000        ..      MOVS     r0,r0
    .text
    strcmp
        0x00003894:    4602        .F      MOV      r2,r0
        0x00003896:    b570        p.      PUSH     {r4-r6,lr}
        0x00003898:    430a        .C      ORRS     r2,r2,r1
        0x0000389a:    0792        ..      LSLS     r2,r2,#30
        0x0000389c:    d12a        *.      BNE      0x38f4 ; strcmp + 96
        0x0000389e:    4d1e        .M      LDR      r5,[pc,#120] ; [0x3918] = 0x1010101
        0x000038a0:    01ee        ..      LSLS     r6,r5,#7
        0x000038a2:    c804        ..      LDM      r0!,{r2}
        0x000038a4:    c908        ..      LDM      r1!,{r3}
        0x000038a6:    1b54        T.      SUBS     r4,r2,r5
        0x000038a8:    4394        .C      BICS     r4,r4,r2
        0x000038aa:    4034        4@      ANDS     r4,r4,r6
        0x000038ac:    d017        ..      BEQ      0x38de ; strcmp + 74
        0x000038ae:    b2d0        ..      UXTB     r0,r2
        0x000038b0:    b2d9        ..      UXTB     r1,r3
        0x000038b2:    1a40        @.      SUBS     r0,r0,r1
        0x000038b4:    0621        !.      LSLS     r1,r4,#24
        0x000038b6:    4301        .C      ORRS     r1,r1,r0
        0x000038b8:    d110        ..      BNE      0x38dc ; strcmp + 72
        0x000038ba:    b290        ..      UXTH     r0,r2
        0x000038bc:    b299        ..      UXTH     r1,r3
        0x000038be:    1a40        @.      SUBS     r0,r0,r1
        0x000038c0:    0421        !.      LSLS     r1,r4,#16
        0x000038c2:    4301        .C      ORRS     r1,r1,r0
        0x000038c4:    d10a        ..      BNE      0x38dc ; strcmp + 72
        0x000038c6:    0210        ..      LSLS     r0,r2,#8
        0x000038c8:    0219        ..      LSLS     r1,r3,#8
        0x000038ca:    0a00        ..      LSRS     r0,r0,#8
        0x000038cc:    0a09        ..      LSRS     r1,r1,#8
        0x000038ce:    1a40        @.      SUBS     r0,r0,r1
        0x000038d0:    0221        !.      LSLS     r1,r4,#8
        0x000038d2:    4301        .C      ORRS     r1,r1,r0
        0x000038d4:    d102        ..      BNE      0x38dc ; strcmp + 72
        0x000038d6:    0e10        ..      LSRS     r0,r2,#24
        0x000038d8:    0e19        ..      LSRS     r1,r3,#24
        0x000038da:    1a40        @.      SUBS     r0,r0,r1
        0x000038dc:    bd70        p.      POP      {r4-r6,pc}
        0x000038de:    429a        .B      CMP      r2,r3
        0x000038e0:    d0df        ..      BEQ      0x38a2 ; strcmp + 14
        0x000038e2:    ba10        ..      REV      r0,r2
        0x000038e4:    ba19        ..      REV      r1,r3
        0x000038e6:    4288        .B      CMP      r0,r1
        0x000038e8:    d901        ..      BLS      0x38ee ; strcmp + 90
        0x000038ea:    2001        .       MOVS     r0,#1
        0x000038ec:    bd70        p.      POP      {r4-r6,pc}
        0x000038ee:    2000        .       MOVS     r0,#0
        0x000038f0:    43c0        .C      MVNS     r0,r0
        0x000038f2:    bd70        p.      POP      {r4-r6,pc}
        0x000038f4:    7802        .x      LDRB     r2,[r0,#0]
        0x000038f6:    780b        .x      LDRB     r3,[r1,#0]
        0x000038f8:    1c40        @.      ADDS     r0,r0,#1
        0x000038fa:    1c49        I.      ADDS     r1,r1,#1
        0x000038fc:    2a00        .*      CMP      r2,#0
        0x000038fe:    d009        ..      BEQ      0x3914 ; strcmp + 128
        0x00003900:    429a        .B      CMP      r2,r3
        0x00003902:    d107        ..      BNE      0x3914 ; strcmp + 128
        0x00003904:    7802        .x      LDRB     r2,[r0,#0]
        0x00003906:    780b        .x      LDRB     r3,[r1,#0]
        0x00003908:    1c40        @.      ADDS     r0,r0,#1
        0x0000390a:    1c49        I.      ADDS     r1,r1,#1
        0x0000390c:    2a00        .*      CMP      r2,#0
        0x0000390e:    d001        ..      BEQ      0x3914 ; strcmp + 128
        0x00003910:    429a        .B      CMP      r2,r3
        0x00003912:    d0ef        ..      BEQ      0x38f4 ; strcmp + 96
        0x00003914:    1ad0        ..      SUBS     r0,r2,r3
        0x00003916:    bd70        p.      POP      {r4-r6,pc}
    $d
        0x00003918:    01010101    ....    DCD    16843009
    $t
    .text
    _sys_exit
        0x0000391c:    4901        .I      LDR      r1,[pc,#4] ; [0x3924] = 0x20026
        0x0000391e:    2018        .       MOVS     r0,#0x18
        0x00003920:    beab        ..      BKPT     #0xab
        0x00003922:    e7fe        ..      B        0x3922 ; _sys_exit + 6
    $d
        0x00003924:    00020026    &...    DCD    131110
    $t
    .text
    __I$use$semihosting
    __use_no_semihosting_swi
        0x00003928:    4770        pG      BX       lr
    i.__ARM_common_ll_muluu
    .text
    __ARM_common_ll_muluu
    __semihosting_library_function
        0x0000392a:    b5f8        ..      PUSH     {r3-r7,lr}
        0x0000392c:    0c04        ..      LSRS     r4,r0,#16
        0x0000392e:    b28b        ..      UXTH     r3,r1
        0x00003930:    4626        &F      MOV      r6,r4
        0x00003932:    b282        ..      UXTH     r2,r0
        0x00003934:    435e        ^C      MULS     r6,r3,r6
        0x00003936:    4610        .F      MOV      r0,r2
        0x00003938:    4358        XC      MULS     r0,r3,r0
        0x0000393a:    0c0d        ..      LSRS     r5,r1,#16
        0x0000393c:    0c37        7.      LSRS     r7,r6,#16
        0x0000393e:    0436        6.      LSLS     r6,r6,#16
        0x00003940:    2100        .!      MOVS     r1,#0
        0x00003942:    1980        ..      ADDS     r0,r0,r6
        0x00003944:    4616        .F      MOV      r6,r2
        0x00003946:    4179        yA      ADCS     r1,r1,r7
        0x00003948:    436e        nC      MULS     r6,r5,r6
        0x0000394a:    0c37        7.      LSRS     r7,r6,#16
        0x0000394c:    0436        6.      LSLS     r6,r6,#16
        0x0000394e:    1980        ..      ADDS     r0,r0,r6
        0x00003950:    4626        &F      MOV      r6,r4
        0x00003952:    4179        yA      ADCS     r1,r1,r7
        0x00003954:    436e        nC      MULS     r6,r5,r6
        0x00003956:    1989        ..      ADDS     r1,r1,r6
        0x00003958:    bdf8        ..      POP      {r3-r7,pc}
    i.__ARM_common_switch8
    __ARM_common_switch8
        0x0000395a:    b430        0.      PUSH     {r4,r5}
        0x0000395c:    4674        tF      MOV      r4,lr
        0x0000395e:    1e64        d.      SUBS     r4,r4,#1
        0x00003960:    7825        %x      LDRB     r5,[r4,#0]
        0x00003962:    1c64        d.      ADDS     r4,r4,#1
        0x00003964:    42ab        .B      CMP      r3,r5
        0x00003966:    d304        ..      BCC      0x3972 ; __ARM_common_switch8 + 24
        0x00003968:    5d63        c]      LDRB     r3,[r4,r5]
        0x0000396a:    005b        [.      LSLS     r3,r3,#1
        0x0000396c:    18e3        ..      ADDS     r3,r4,r3
        0x0000396e:    bc30        0.      POP      {r4,r5}
        0x00003970:    4718        .G      BX       r3
        0x00003972:    461d        .F      MOV      r5,r3
        0x00003974:    e7f8        ..      B        0x3968 ; __ARM_common_switch8 + 14
        0x00003976:    0000        ..      MOVS     r0,r0
    i.__ARM_fpclassify
    __ARM_fpclassify
        0x00003978:    0049        I.      LSLS     r1,r1,#1
        0x0000397a:    02ca        ..      LSLS     r2,r1,#11
        0x0000397c:    4310        .C      ORRS     r0,r0,r2
        0x0000397e:    d000        ..      BEQ      0x3982 ; __ARM_fpclassify + 10
        0x00003980:    2004        .       MOVS     r0,#4
        0x00003982:    0d4a        J.      LSRS     r2,r1,#21
        0x00003984:    d001        ..      BEQ      0x398a ; __ARM_fpclassify + 18
        0x00003986:    2201        ."      MOVS     r2,#1
        0x00003988:    4310        .C      ORRS     r0,r0,r2
        0x0000398a:    4a05        .J      LDR      r2,[pc,#20] ; [0x39a0] = 0x7ff
        0x0000398c:    0d49        I.      LSRS     r1,r1,#21
        0x0000398e:    4291        .B      CMP      r1,r2
        0x00003990:    d101        ..      BNE      0x3996 ; __ARM_fpclassify + 30
        0x00003992:    2102        .!      MOVS     r1,#2
        0x00003994:    4308        .C      ORRS     r0,r0,r1
        0x00003996:    2801        .(      CMP      r0,#1
        0x00003998:    d100        ..      BNE      0x399c ; __ARM_fpclassify + 36
        0x0000399a:    2005        .       MOVS     r0,#5
        0x0000399c:    4770        pG      BX       lr
    $d
        0x0000399e:    0000        ..      DCW    0
        0x000039a0:    000007ff    ....    DCD    2047
    $t
    i.__kernel_poly
    __kernel_poly
        0x000039a4:    b5f8        ..      PUSH     {r3-r7,lr}
        0x000039a6:    4604        .F      MOV      r4,r0
        0x000039a8:    1e4f        O.      SUBS     r7,r1,#1
        0x000039aa:    00c8        ..      LSLS     r0,r1,#3
        0x000039ac:    3808        .8      SUBS     r0,r0,#8
        0x000039ae:    1821        !.      ADDS     r1,r4,r0
        0x000039b0:    4615        .F      MOV      r5,r2
        0x000039b2:    461e        .F      MOV      r6,r3
        0x000039b4:    6808        .h      LDR      r0,[r1,#0]
        0x000039b6:    6849        Ih      LDR      r1,[r1,#4]
        0x000039b8:    463a        :F      MOV      r2,r7
        0x000039ba:    2306        .#      MOVS     r3,#6
        0x000039bc:    439a        .C      BICS     r2,r2,r3
        0x000039be:    d010        ..      BEQ      0x39e2 ; __kernel_poly + 62
        0x000039c0:    462a        *F      MOV      r2,r5
        0x000039c2:    4633        3F      MOV      r3,r6
        0x000039c4:    f7fefef4    ....    BL       __aeabi_dmul ; 0x27b0
        0x000039c8:    463a        :F      MOV      r2,r7
        0x000039ca:    00d2        ..      LSLS     r2,r2,#3
        0x000039cc:    3a08        .:      SUBS     r2,r2,#8
        0x000039ce:    18a3        ..      ADDS     r3,r4,r2
        0x000039d0:    681a        .h      LDR      r2,[r3,#0]
        0x000039d2:    1e7f        ..      SUBS     r7,r7,#1
        0x000039d4:    685b        [h      LDR      r3,[r3,#4]
        0x000039d6:    f7fefc98    ....    BL       __aeabi_dadd ; 0x230a
        0x000039da:    2206        ."      MOVS     r2,#6
        0x000039dc:    463b        ;F      MOV      r3,r7
        0x000039de:    4393        .C      BICS     r3,r3,r2
        0x000039e0:    d1ee        ..      BNE      0x39c0 ; __kernel_poly + 28
        0x000039e2:    2f02        ./      CMP      r7,#2
        0x000039e4:    d023        #.      BEQ      0x3a2e ; __kernel_poly + 138
        0x000039e6:    2f04        ./      CMP      r7,#4
        0x000039e8:    d011        ..      BEQ      0x3a0e ; __kernel_poly + 106
        0x000039ea:    2f06        ./      CMP      r7,#6
        0x000039ec:    d12f        /.      BNE      0x3a4e ; __kernel_poly + 170
        0x000039ee:    462a        *F      MOV      r2,r5
        0x000039f0:    4633        3F      MOV      r3,r6
        0x000039f2:    f7fefedd    ....    BL       __aeabi_dmul ; 0x27b0
        0x000039f6:    6ae3        .j      LDR      r3,[r4,#0x2c]
        0x000039f8:    6aa2        .j      LDR      r2,[r4,#0x28]
        0x000039fa:    f7fefc86    ....    BL       __aeabi_dadd ; 0x230a
        0x000039fe:    462a        *F      MOV      r2,r5
        0x00003a00:    4633        3F      MOV      r3,r6
        0x00003a02:    f7fefed5    ....    BL       __aeabi_dmul ; 0x27b0
        0x00003a06:    6a63        cj      LDR      r3,[r4,#0x24]
        0x00003a08:    6a22        "j      LDR      r2,[r4,#0x20]
        0x00003a0a:    f7fefc7e    ..~.    BL       __aeabi_dadd ; 0x230a
        0x00003a0e:    462a        *F      MOV      r2,r5
        0x00003a10:    4633        3F      MOV      r3,r6
        0x00003a12:    f7fefecd    ....    BL       __aeabi_dmul ; 0x27b0
        0x00003a16:    69e3        .i      LDR      r3,[r4,#0x1c]
        0x00003a18:    69a2        .i      LDR      r2,[r4,#0x18]
        0x00003a1a:    f7fefc76    ..v.    BL       __aeabi_dadd ; 0x230a
        0x00003a1e:    462a        *F      MOV      r2,r5
        0x00003a20:    4633        3F      MOV      r3,r6
        0x00003a22:    f7fefec5    ....    BL       __aeabi_dmul ; 0x27b0
        0x00003a26:    6963        ci      LDR      r3,[r4,#0x14]
        0x00003a28:    6922        "i      LDR      r2,[r4,#0x10]
        0x00003a2a:    f7fefc6e    ..n.    BL       __aeabi_dadd ; 0x230a
        0x00003a2e:    462a        *F      MOV      r2,r5
        0x00003a30:    4633        3F      MOV      r3,r6
        0x00003a32:    f7fefebd    ....    BL       __aeabi_dmul ; 0x27b0
        0x00003a36:    68e3        .h      LDR      r3,[r4,#0xc]
        0x00003a38:    68a2        .h      LDR      r2,[r4,#8]
        0x00003a3a:    f7fefc66    ..f.    BL       __aeabi_dadd ; 0x230a
        0x00003a3e:    462a        *F      MOV      r2,r5
        0x00003a40:    4633        3F      MOV      r3,r6
        0x00003a42:    f7fefeb5    ....    BL       __aeabi_dmul ; 0x27b0
        0x00003a46:    6863        ch      LDR      r3,[r4,#4]
        0x00003a48:    6822        "h      LDR      r2,[r4,#0]
        0x00003a4a:    f7fefc5e    ..^.    BL       __aeabi_dadd ; 0x230a
        0x00003a4e:    bdf8        ..      POP      {r3-r7,pc}
    i.__mathlib_dbl_underflow
    __mathlib_dbl_underflow
        0x00003a50:    4a03        .J      LDR      r2,[pc,#12] ; [0x3a60] = 0xfffffd01
        0x00003a52:    b510        ..      PUSH     {r4,lr}
        0x00003a54:    2000        .       MOVS     r0,#0
        0x00003a56:    0711        ..      LSLS     r1,r2,#28
        0x00003a58:    f7fffec4    ....    BL       __ARM_scalbn ; 0x37e4
        0x00003a5c:    bd10        ..      POP      {r4,pc}
    $d
        0x00003a5e:    0000        ..      DCW    0
        0x00003a60:    fffffd01    ....    DCD    4294966529
    $t
    i._is_digit
    _is_digit
        0x00003a64:    3830        08      SUBS     r0,r0,#0x30
        0x00003a66:    280a        .(      CMP      r0,#0xa
        0x00003a68:    d201        ..      BCS      0x3a6e ; _is_digit + 10
        0x00003a6a:    2001        .       MOVS     r0,#1
        0x00003a6c:    4770        pG      BX       lr
        0x00003a6e:    2000        .       MOVS     r0,#0
        0x00003a70:    4770        pG      BX       lr
        0x00003a72:    0000        ..      MOVS     r0,r0
    i.atan
    atan
        0x00003a74:    b5f0        ..      PUSH     {r4-r7,lr}
        0x00003a76:    b089        ..      SUB      sp,sp,#0x24
        0x00003a78:    4604        .F      MOV      r4,r0
        0x00003a7a:    460d        .F      MOV      r5,r1
        0x00003a7c:    0048        H.      LSLS     r0,r1,#1
        0x00003a7e:    9106        ..      STR      r1,[sp,#0x18]
        0x00003a80:    4973        sI      LDR      r1,[pc,#460] ; [0x3c50] = 0x44100000
        0x00003a82:    0840        @.      LSRS     r0,r0,#1
        0x00003a84:    4288        .B      CMP      r0,r1
        0x00003a86:    db16        ..      BLT      0x3ab6 ; atan + 66
        0x00003a88:    4972        rI      LDR      r1,[pc,#456] ; [0x3c54] = 0x7ff00000
        0x00003a8a:    4288        .B      CMP      r0,r1
        0x00003a8c:    dc03        ..      BGT      0x3a96 ; atan + 34
        0x00003a8e:    4288        .B      CMP      r0,r1
        0x00003a90:    d108        ..      BNE      0x3aa4 ; atan + 48
        0x00003a92:    2c00        .,      CMP      r4,#0
        0x00003a94:    d006        ..      BEQ      0x3aa4 ; atan + 48
        0x00003a96:    2201        ."      MOVS     r2,#1
        0x00003a98:    4620         F      MOV      r0,r4
        0x00003a9a:    4629        )F      MOV      r1,r5
        0x00003a9c:    f7fffea2    ....    BL       __ARM_scalbn ; 0x37e4
        0x00003aa0:    b009        ..      ADD      sp,sp,#0x24
        0x00003aa2:    bdf0        ..      POP      {r4-r7,pc}
        0x00003aa4:    486c        lH      LDR      r0,[pc,#432] ; [0x3c58] = 0x54442d18
        0x00003aa6:    2d00        .-      CMP      r5,#0
        0x00003aa8:    dd02        ..      BLE      0x3ab0 ; atan + 60
        0x00003aaa:    496c        lI      LDR      r1,[pc,#432] ; [0x3c5c] = 0x3ff921fb
        0x00003aac:    b009        ..      ADD      sp,sp,#0x24
        0x00003aae:    bdf0        ..      POP      {r4-r7,pc}
        0x00003ab0:    496b        kI      LDR      r1,[pc,#428] ; [0x3c60] = 0xbff921fb
        0x00003ab2:    b009        ..      ADD      sp,sp,#0x24
        0x00003ab4:    bdf0        ..      POP      {r4-r7,pc}
        0x00003ab6:    496b        kI      LDR      r1,[pc,#428] ; [0x3c64] = 0x3fdc0000
        0x00003ab8:    4288        .B      CMP      r0,r1
        0x00003aba:    da11        ..      BGE      0x3ae0 ; atan + 108
        0x00003abc:    496a        jI      LDR      r1,[pc,#424] ; [0x3c68] = 0x3e200000
        0x00003abe:    4288        .B      CMP      r0,r1
        0x00003ac0:    da0b        ..      BGE      0x3ada ; atan + 102
        0x00003ac2:    4620         F      MOV      r0,r4
        0x00003ac4:    4629        )F      MOV      r1,r5
        0x00003ac6:    f7ffff57    ..W.    BL       __ARM_fpclassify ; 0x3978
        0x00003aca:    2804        .(      CMP      r0,#4
        0x00003acc:    d101        ..      BNE      0x3ad2 ; atan + 94
        0x00003ace:    f7ffffbf    ....    BL       __mathlib_dbl_underflow ; 0x3a50
        0x00003ad2:    4620         F      MOV      r0,r4
        0x00003ad4:    4629        )F      MOV      r1,r5
        0x00003ad6:    b009        ..      ADD      sp,sp,#0x24
        0x00003ad8:    bdf0        ..      POP      {r4-r7,pc}
        0x00003ada:    2600        .&      MOVS     r6,#0
        0x00003adc:    43f6        .C      MVNS     r6,r6
        0x00003ade:    e05d        ].      B        0x3b9c ; atan + 296
        0x00003ae0:    006d        m.      LSLS     r5,r5,#1
        0x00003ae2:    4962        bI      LDR      r1,[pc,#392] ; [0x3c6c] = 0x3ff30000
        0x00003ae4:    086d        m.      LSRS     r5,r5,#1
        0x00003ae6:    4288        .B      CMP      r0,r1
        0x00003ae8:    da32        2.      BGE      0x3b50 ; atan + 220
        0x00003aea:    4961        aI      LDR      r1,[pc,#388] ; [0x3c70] = 0x3fe60000
        0x00003aec:    4288        .B      CMP      r0,r1
        0x00003aee:    da19        ..      BGE      0x3b24 ; atan + 176
        0x00003af0:    2600        .&      MOVS     r6,#0
        0x00003af2:    2301        .#      MOVS     r3,#1
        0x00003af4:    4632        2F      MOV      r2,r6
        0x00003af6:    079b        ..      LSLS     r3,r3,#30
        0x00003af8:    4620         F      MOV      r0,r4
        0x00003afa:    4629        )F      MOV      r1,r5
        0x00003afc:    f7fefc05    ....    BL       __aeabi_dadd ; 0x230a
        0x00003b00:    4607        .F      MOV      r7,r0
        0x00003b02:    9101        ..      STR      r1,[sp,#4]
        0x00003b04:    2201        ."      MOVS     r2,#1
        0x00003b06:    4620         F      MOV      r0,r4
        0x00003b08:    4629        )F      MOV      r1,r5
        0x00003b0a:    f7fffe6b    ..k.    BL       __ARM_scalbn ; 0x37e4
        0x00003b0e:    2200        ."      MOVS     r2,#0
        0x00003b10:    4b58        XK      LDR      r3,[pc,#352] ; [0x3c74] = 0x3ff00000
        0x00003b12:    f7fefc05    ....    BL       __aeabi_dsub ; 0x2320
        0x00003b16:    463a        :F      MOV      r2,r7
        0x00003b18:    9b01        ..      LDR      r3,[sp,#4]
        0x00003b1a:    f7fefc23    ..#.    BL       __aeabi_ddiv ; 0x2364
        0x00003b1e:    4604        .F      MOV      r4,r0
        0x00003b20:    460d        .F      MOV      r5,r1
        0x00003b22:    e03b        ;.      B        0x3b9c ; atan + 296
        0x00003b24:    2601        .&      MOVS     r6,#1
        0x00003b26:    2200        ."      MOVS     r2,#0
        0x00003b28:    4b52        RK      LDR      r3,[pc,#328] ; [0x3c74] = 0x3ff00000
        0x00003b2a:    4620         F      MOV      r0,r4
        0x00003b2c:    4629        )F      MOV      r1,r5
        0x00003b2e:    f7fefbec    ....    BL       __aeabi_dadd ; 0x230a
        0x00003b32:    4607        .F      MOV      r7,r0
        0x00003b34:    9100        ..      STR      r1,[sp,#0]
        0x00003b36:    2200        ."      MOVS     r2,#0
        0x00003b38:    4b4e        NK      LDR      r3,[pc,#312] ; [0x3c74] = 0x3ff00000
        0x00003b3a:    4620         F      MOV      r0,r4
        0x00003b3c:    4629        )F      MOV      r1,r5
        0x00003b3e:    f7fefbef    ....    BL       __aeabi_dsub ; 0x2320
        0x00003b42:    463a        :F      MOV      r2,r7
        0x00003b44:    9b00        ..      LDR      r3,[sp,#0]
        0x00003b46:    f7fefc0d    ....    BL       __aeabi_ddiv ; 0x2364
        0x00003b4a:    4604        .F      MOV      r4,r0
        0x00003b4c:    460d        .F      MOV      r5,r1
        0x00003b4e:    e025        %.      B        0x3b9c ; atan + 296
        0x00003b50:    4949        II      LDR      r1,[pc,#292] ; [0x3c78] = 0x40038000
        0x00003b52:    4288        .B      CMP      r0,r1
        0x00003b54:    da19        ..      BGE      0x3b8a ; atan + 278
        0x00003b56:    2602        .&      MOVS     r6,#2
        0x00003b58:    2200        ."      MOVS     r2,#0
        0x00003b5a:    4b48        HK      LDR      r3,[pc,#288] ; [0x3c7c] = 0x3ff80000
        0x00003b5c:    4620         F      MOV      r0,r4
        0x00003b5e:    4629        )F      MOV      r1,r5
        0x00003b60:    f7fefe26    ..&.    BL       __aeabi_dmul ; 0x27b0
        0x00003b64:    2200        ."      MOVS     r2,#0
        0x00003b66:    4b43        CK      LDR      r3,[pc,#268] ; [0x3c74] = 0x3ff00000
        0x00003b68:    f7fefbcf    ....    BL       __aeabi_dadd ; 0x230a
        0x00003b6c:    4607        .F      MOV      r7,r0
        0x00003b6e:    9102        ..      STR      r1,[sp,#8]
        0x00003b70:    2200        ."      MOVS     r2,#0
        0x00003b72:    4b42        BK      LDR      r3,[pc,#264] ; [0x3c7c] = 0x3ff80000
        0x00003b74:    4620         F      MOV      r0,r4
        0x00003b76:    4629        )F      MOV      r1,r5
        0x00003b78:    f7fefbd2    ....    BL       __aeabi_dsub ; 0x2320
        0x00003b7c:    463a        :F      MOV      r2,r7
        0x00003b7e:    9b02        ..      LDR      r3,[sp,#8]
        0x00003b80:    f7fefbf0    ....    BL       __aeabi_ddiv ; 0x2364
        0x00003b84:    4604        .F      MOV      r4,r0
        0x00003b86:    460d        .F      MOV      r5,r1
        0x00003b88:    e008        ..      B        0x3b9c ; atan + 296
        0x00003b8a:    2603        .&      MOVS     r6,#3
        0x00003b8c:    4622        "F      MOV      r2,r4
        0x00003b8e:    462b        +F      MOV      r3,r5
        0x00003b90:    2000        .       MOVS     r0,#0
        0x00003b92:    493b        ;I      LDR      r1,[pc,#236] ; [0x3c80] = 0xbff00000
        0x00003b94:    f7fefbe6    ....    BL       __aeabi_ddiv ; 0x2364
        0x00003b98:    4604        .F      MOV      r4,r0
        0x00003b9a:    460d        .F      MOV      r5,r1
        0x00003b9c:    4622        "F      MOV      r2,r4
        0x00003b9e:    462b        +F      MOV      r3,r5
        0x00003ba0:    4610        .F      MOV      r0,r2
        0x00003ba2:    4619        .F      MOV      r1,r3
        0x00003ba4:    f7fefe04    ....    BL       __aeabi_dmul ; 0x27b0
        0x00003ba8:    4607        .F      MOV      r7,r0
        0x00003baa:    460b        .F      MOV      r3,r1
        0x00003bac:    4602        .F      MOV      r2,r0
        0x00003bae:    9101        ..      STR      r1,[sp,#4]
        0x00003bb0:    f7fefdfe    ....    BL       __aeabi_dmul ; 0x27b0
        0x00003bb4:    4602        .F      MOV      r2,r0
        0x00003bb6:    9002        ..      STR      r0,[sp,#8]
        0x00003bb8:    4832        2H      LDR      r0,[pc,#200] ; [0x3c84] = 0x5bc
        0x00003bba:    460b        .F      MOV      r3,r1
        0x00003bbc:    9103        ..      STR      r1,[sp,#0xc]
        0x00003bbe:    2106        .!      MOVS     r1,#6
        0x00003bc0:    4478        xD      ADD      r0,r0,pc
        0x00003bc2:    f7fffeef    ....    BL       __kernel_poly ; 0x39a4
        0x00003bc6:    463a        :F      MOV      r2,r7
        0x00003bc8:    9b01        ..      LDR      r3,[sp,#4]
        0x00003bca:    f7fefdf1    ....    BL       __aeabi_dmul ; 0x27b0
        0x00003bce:    9000        ..      STR      r0,[sp,#0]
        0x00003bd0:    482d        -H      LDR      r0,[pc,#180] ; [0x3c88] = 0x57e
        0x00003bd2:    9101        ..      STR      r1,[sp,#4]
        0x00003bd4:    2105        .!      MOVS     r1,#5
        0x00003bd6:    4478        xD      ADD      r0,r0,pc
        0x00003bd8:    9b03        ..      LDR      r3,[sp,#0xc]
        0x00003bda:    9a02        ..      LDR      r2,[sp,#8]
        0x00003bdc:    f7fffee2    ....    BL       __kernel_poly ; 0x39a4
        0x00003be0:    9b03        ..      LDR      r3,[sp,#0xc]
        0x00003be2:    9a02        ..      LDR      r2,[sp,#8]
        0x00003be4:    f7fefde4    ....    BL       __aeabi_dmul ; 0x27b0
        0x00003be8:    4602        .F      MOV      r2,r0
        0x00003bea:    460b        .F      MOV      r3,r1
        0x00003bec:    9901        ..      LDR      r1,[sp,#4]
        0x00003bee:    9800        ..      LDR      r0,[sp,#0]
        0x00003bf0:    2e00        ..      CMP      r6,#0
        0x00003bf2:    da0b        ..      BGE      0x3c0c ; atan + 408
        0x00003bf4:    f7fefb89    ....    BL       __aeabi_dadd ; 0x230a
        0x00003bf8:    4622        "F      MOV      r2,r4
        0x00003bfa:    462b        +F      MOV      r3,r5
        0x00003bfc:    f7fefdd8    ....    BL       __aeabi_dmul ; 0x27b0
        0x00003c00:    4622        "F      MOV      r2,r4
        0x00003c02:    462b        +F      MOV      r3,r5
        0x00003c04:    f7fefb97    ....    BL       __aeabi_drsub ; 0x2336
        0x00003c08:    b009        ..      ADD      sp,sp,#0x24
        0x00003c0a:    bdf0        ..      POP      {r4-r7,pc}
        0x00003c0c:    f7fefb7d    ..}.    BL       __aeabi_dadd ; 0x230a
        0x00003c10:    4622        "F      MOV      r2,r4
        0x00003c12:    462b        +F      MOV      r3,r5
        0x00003c14:    f7fefdcc    ....    BL       __aeabi_dmul ; 0x27b0
        0x00003c18:    4a1c        .J      LDR      r2,[pc,#112] ; [0x3c8c] = 0x518
        0x00003c1a:    00f6        ..      LSLS     r6,r6,#3
        0x00003c1c:    447a        zD      ADD      r2,r2,pc
        0x00003c1e:    1993        ..      ADDS     r3,r2,r6
        0x00003c20:    681a        .h      LDR      r2,[r3,#0]
        0x00003c22:    685b        [h      LDR      r3,[r3,#4]
        0x00003c24:    f7fefb7c    ..|.    BL       __aeabi_dsub ; 0x2320
        0x00003c28:    4622        "F      MOV      r2,r4
        0x00003c2a:    462b        +F      MOV      r3,r5
        0x00003c2c:    f7fefb78    ..x.    BL       __aeabi_dsub ; 0x2320
        0x00003c30:    4a17        .J      LDR      r2,[pc,#92] ; [0x3c90] = 0x4e2
        0x00003c32:    447a        zD      ADD      r2,r2,pc
        0x00003c34:    1993        ..      ADDS     r3,r2,r6
        0x00003c36:    681a        .h      LDR      r2,[r3,#0]
        0x00003c38:    685b        [h      LDR      r3,[r3,#4]
        0x00003c3a:    f7fefb7c    ..|.    BL       __aeabi_drsub ; 0x2336
        0x00003c3e:    9a06        ..      LDR      r2,[sp,#0x18]
        0x00003c40:    2a00        .*      CMP      r2,#0
        0x00003c42:    dae1        ..      BGE      0x3c08 ; atan + 404
        0x00003c44:    2201        ."      MOVS     r2,#1
        0x00003c46:    07d2        ..      LSLS     r2,r2,#31
        0x00003c48:    4051        Q@      EORS     r1,r1,r2
        0x00003c4a:    b009        ..      ADD      sp,sp,#0x24
        0x00003c4c:    bdf0        ..      POP      {r4-r7,pc}
    $d
        0x00003c4e:    0000        ..      DCW    0
        0x00003c50:    44100000    ...D    DCD    1141899264
        0x00003c54:    7ff00000    ....    DCD    2146435072
        0x00003c58:    54442d18    .-DT    DCD    1413754136
        0x00003c5c:    3ff921fb    .!.?    DCD    1073291771
        0x00003c60:    bff921fb    .!..    DCD    3220775419
        0x00003c64:    3fdc0000    ...?    DCD    1071382528
        0x00003c68:    3e200000    .. >    DCD    1042284544
        0x00003c6c:    3ff30000    ...?    DCD    1072889856
        0x00003c70:    3fe60000    ...?    DCD    1072037888
        0x00003c74:    3ff00000    ...?    DCD    1072693248
        0x00003c78:    40038000    ...@    DCD    1073971200
        0x00003c7c:    3ff80000    ...?    DCD    1073217536
        0x00003c80:    bff00000    ....    DCD    3220176896
        0x00003c84:    000005bc    ....    DCD    1468
        0x00003c88:    0000057e    ~...    DCD    1406
        0x00003c8c:    00000518    ....    DCD    1304
        0x00003c90:    000004e2    ....    DCD    1250
    $t
    i.atan2
    atan2
        0x00003c94:    b5f0        ..      PUSH     {r4-r7,lr}
        0x00003c96:    b41f        ..      PUSH     {r0-r4}
        0x00003c98:    9b03        ..      LDR      r3,[sp,#0xc]
        0x00003c9a:    4254        TB      RSBS     r4,r2,#0
        0x00003c9c:    005d        ].      LSLS     r5,r3,#1
        0x00003c9e:    4616        .F      MOV      r6,r2
        0x00003ca0:    4326        &C      ORRS     r6,r6,r4
        0x00003ca2:    469c        .F      MOV      r12,r3
        0x00003ca4:    0ff4        ..      LSRS     r4,r6,#31
        0x00003ca6:    086d        m.      LSRS     r5,r5,#1
        0x00003ca8:    004b        K.      LSLS     r3,r1,#1
        0x00003caa:    4e4e        NN      LDR      r6,[pc,#312] ; [0x3de4] = 0x7ff00000
        0x00003cac:    085b        [.      LSRS     r3,r3,#1
        0x00003cae:    432c        ,C      ORRS     r4,r4,r5
        0x00003cb0:    468e        .F      MOV      lr,r1
        0x00003cb2:    42b4        .B      CMP      r4,r6
        0x00003cb4:    d805        ..      BHI      0x3cc2 ; atan2 + 46
        0x00003cb6:    4247        GB      RSBS     r7,r0,#0
        0x00003cb8:    4307        .C      ORRS     r7,r7,r0
        0x00003cba:    0ffc        ..      LSRS     r4,r7,#31
        0x00003cbc:    431c        .C      ORRS     r4,r4,r3
        0x00003cbe:    42b4        .B      CMP      r4,r6
        0x00003cc0:    d904        ..      BLS      0x3ccc ; atan2 + 56
        0x00003cc2:    4663        cF      MOV      r3,r12
        0x00003cc4:    f7fefb21    ..!.    BL       __aeabi_dadd ; 0x230a
        0x00003cc8:    b005        ..      ADD      sp,sp,#0x14
        0x00003cca:    bdf0        ..      POP      {r4-r7,pc}
        0x00003ccc:    4e46        FN      LDR      r6,[pc,#280] ; [0x3de8] = 0xc0100000
        0x00003cce:    4466        fD      ADD      r6,r6,r12
        0x00003cd0:    4316        .C      ORRS     r6,r6,r2
        0x00003cd2:    d009        ..      BEQ      0x3ce8 ; atan2 + 84
        0x00003cd4:    0fcc        ..      LSRS     r4,r1,#31
        0x00003cd6:    4666        fF      MOV      r6,r12
        0x00003cd8:    17b6        ..      ASRS     r6,r6,#30
        0x00003cda:    2702        .'      MOVS     r7,#2
        0x00003cdc:    403e        >@      ANDS     r6,r6,r7
        0x00003cde:    4326        &C      ORRS     r6,r6,r4
        0x00003ce0:    4604        .F      MOV      r4,r0
        0x00003ce2:    431c        .C      ORRS     r4,r4,r3
        0x00003ce4:    d004        ..      BEQ      0x3cf0 ; atan2 + 92
        0x00003ce6:    e00b        ..      B        0x3d00 ; atan2 + 108
        0x00003ce8:    f7fffec4    ....    BL       atan ; 0x3a74
        0x00003cec:    b005        ..      ADD      sp,sp,#0x14
        0x00003cee:    bdf0        ..      POP      {r4-r7,pc}
        0x00003cf0:    2e00        ..      CMP      r6,#0
        0x00003cf2:    d0fb        ..      BEQ      0x3cec ; atan2 + 88
        0x00003cf4:    2e01        ..      CMP      r6,#1
        0x00003cf6:    d0f9        ..      BEQ      0x3cec ; atan2 + 88
        0x00003cf8:    2e02        ..      CMP      r6,#2
        0x00003cfa:    d032        2.      BEQ      0x3d62 ; atan2 + 206
        0x00003cfc:    2e03        ..      CMP      r6,#3
        0x00003cfe:    d034        4.      BEQ      0x3d6a ; atan2 + 214
        0x00003d00:    4614        .F      MOV      r4,r2
        0x00003d02:    432c        ,C      ORRS     r4,r4,r5
        0x00003d04:    d00b        ..      BEQ      0x3d1e ; atan2 + 138
        0x00003d06:    4c37        7L      LDR      r4,[pc,#220] ; [0x3de4] = 0x7ff00000
        0x00003d08:    42a5        .B      CMP      r5,r4
        0x00003d0a:    d116        ..      BNE      0x3d3a ; atan2 + 166
        0x00003d0c:    42a3        .B      CMP      r3,r4
        0x00003d0e:    d10a        ..      BNE      0x3d26 ; atan2 + 146
        0x00003d10:    2101        .!      MOVS     r1,#1
        0x00003d12:    0789        ..      LSLS     r1,r1,#30
        0x00003d14:    438d        .C      BICS     r5,r5,r1
        0x00003d16:    438b        .C      BICS     r3,r3,r1
        0x00003d18:    4619        .F      MOV      r1,r3
        0x00003d1a:    9503        ..      STR      r5,[sp,#0xc]
        0x00003d1c:    e00d        ..      B        0x3d3a ; atan2 + 166
        0x00003d1e:    4670        pF      MOV      r0,lr
        0x00003d20:    2800        .(      CMP      r0,#0
        0x00003d22:    db0f        ..      BLT      0x3d44 ; atan2 + 176
        0x00003d24:    e025        %.      B        0x3d72 ; atan2 + 222
        0x00003d26:    4f31        1O      LDR      r7,[pc,#196] ; [0x3dec] = 0x484
        0x00003d28:    447f        .D      ADD      r7,r7,pc
        0x00003d2a:    2e00        ..      CMP      r6,#0
        0x00003d2c:    d00e        ..      BEQ      0x3d4c ; atan2 + 184
        0x00003d2e:    2e01        ..      CMP      r6,#1
        0x00003d30:    d010        ..      BEQ      0x3d54 ; atan2 + 192
        0x00003d32:    2e02        ..      CMP      r6,#2
        0x00003d34:    d015        ..      BEQ      0x3d62 ; atan2 + 206
        0x00003d36:    2e03        ..      CMP      r6,#3
        0x00003d38:    d017        ..      BEQ      0x3d6a ; atan2 + 214
        0x00003d3a:    42a3        .B      CMP      r3,r4
        0x00003d3c:    d11d        ..      BNE      0x3d7a ; atan2 + 230
        0x00003d3e:    4670        pF      MOV      r0,lr
        0x00003d40:    2800        .(      CMP      r0,#0
        0x00003d42:    da16        ..      BGE      0x3d72 ; atan2 + 222
        0x00003d44:    482a        *H      LDR      r0,[pc,#168] ; [0x3df0] = 0x54442d18
        0x00003d46:    492b        +I      LDR      r1,[pc,#172] ; [0x3df4] = 0xbff921fb
        0x00003d48:    b005        ..      ADD      sp,sp,#0x14
        0x00003d4a:    bdf0        ..      POP      {r4-r7,pc}
        0x00003d4c:    6879        yh      LDR      r1,[r7,#4]
        0x00003d4e:    6838        8h      LDR      r0,[r7,#0]
        0x00003d50:    b005        ..      ADD      sp,sp,#0x14
        0x00003d52:    bdf0        ..      POP      {r4-r7,pc}
        0x00003d54:    2201        ."      MOVS     r2,#1
        0x00003d56:    6879        yh      LDR      r1,[r7,#4]
        0x00003d58:    07d2        ..      LSLS     r2,r2,#31
        0x00003d5a:    6838        8h      LDR      r0,[r7,#0]
        0x00003d5c:    4051        Q@      EORS     r1,r1,r2
        0x00003d5e:    b005        ..      ADD      sp,sp,#0x14
        0x00003d60:    bdf0        ..      POP      {r4-r7,pc}
        0x00003d62:    4823        #H      LDR      r0,[pc,#140] ; [0x3df0] = 0x54442d18
        0x00003d64:    4924        $I      LDR      r1,[pc,#144] ; [0x3df8] = 0x400921fb
        0x00003d66:    b005        ..      ADD      sp,sp,#0x14
        0x00003d68:    bdf0        ..      POP      {r4-r7,pc}
        0x00003d6a:    4821        !H      LDR      r0,[pc,#132] ; [0x3df0] = 0x54442d18
        0x00003d6c:    4923        #I      LDR      r1,[pc,#140] ; [0x3dfc] = 0xc00921fb
        0x00003d6e:    b005        ..      ADD      sp,sp,#0x14
        0x00003d70:    bdf0        ..      POP      {r4-r7,pc}
        0x00003d72:    481f        .H      LDR      r0,[pc,#124] ; [0x3df0] = 0x54442d18
        0x00003d74:    4922        "I      LDR      r1,[pc,#136] ; [0x3e00] = 0x3ff921fb
        0x00003d76:    b005        ..      ADD      sp,sp,#0x14
        0x00003d78:    bdf0        ..      POP      {r4-r7,pc}
        0x00003d7a:    1b5b        [.      SUBS     r3,r3,r5
        0x00003d7c:    151b        ..      ASRS     r3,r3,#20
        0x00003d7e:    2b3c        <+      CMP      r3,#0x3c
        0x00003d80:    dd02        ..      BLE      0x3d88 ; atan2 + 244
        0x00003d82:    481b        .H      LDR      r0,[pc,#108] ; [0x3df0] = 0x54442d18
        0x00003d84:    491e        .I      LDR      r1,[pc,#120] ; [0x3e00] = 0x3ff921fb
        0x00003d86:    e010        ..      B        0x3daa ; atan2 + 278
        0x00003d88:    4664        dF      MOV      r4,r12
        0x00003d8a:    2c00        .,      CMP      r4,#0
        0x00003d8c:    da06        ..      BGE      0x3d9c ; atan2 + 264
        0x00003d8e:    243b        ;$      MOVS     r4,#0x3b
        0x00003d90:    43e4        .C      MVNS     r4,r4
        0x00003d92:    42a3        .B      CMP      r3,r4
        0x00003d94:    da02        ..      BGE      0x3d9c ; atan2 + 264
        0x00003d96:    2000        .       MOVS     r0,#0
        0x00003d98:    4601        .F      MOV      r1,r0
        0x00003d9a:    e006        ..      B        0x3daa ; atan2 + 278
        0x00003d9c:    9b03        ..      LDR      r3,[sp,#0xc]
        0x00003d9e:    f7fefae1    ....    BL       __aeabi_ddiv ; 0x2364
        0x00003da2:    0049        I.      LSLS     r1,r1,#1
        0x00003da4:    0849        I.      LSRS     r1,r1,#1
        0x00003da6:    f7fffe65    ..e.    BL       atan ; 0x3a74
        0x00003daa:    2e00        ..      CMP      r6,#0
        0x00003dac:    d0e3        ..      BEQ      0x3d76 ; atan2 + 226
        0x00003dae:    2e01        ..      CMP      r6,#1
        0x00003db0:    d00b        ..      BEQ      0x3dca ; atan2 + 310
        0x00003db2:    4a14        .J      LDR      r2,[pc,#80] ; [0x3e04] = 0x33145c07
        0x00003db4:    4b14        .K      LDR      r3,[pc,#80] ; [0x3e08] = 0x3ca1a626
        0x00003db6:    2e02        ..      CMP      r6,#2
        0x00003db8:    d00c        ..      BEQ      0x3dd4 ; atan2 + 320
        0x00003dba:    f7fefab1    ....    BL       __aeabi_dsub ; 0x2320
        0x00003dbe:    4a0c        .J      LDR      r2,[pc,#48] ; [0x3df0] = 0x54442d18
        0x00003dc0:    4b0d        .K      LDR      r3,[pc,#52] ; [0x3df8] = 0x400921fb
        0x00003dc2:    f7fefaad    ....    BL       __aeabi_dsub ; 0x2320
        0x00003dc6:    b005        ..      ADD      sp,sp,#0x14
        0x00003dc8:    bdf0        ..      POP      {r4-r7,pc}
        0x00003dca:    2201        ."      MOVS     r2,#1
        0x00003dcc:    07d2        ..      LSLS     r2,r2,#31
        0x00003dce:    4051        Q@      EORS     r1,r1,r2
        0x00003dd0:    b005        ..      ADD      sp,sp,#0x14
        0x00003dd2:    bdf0        ..      POP      {r4-r7,pc}
        0x00003dd4:    f7fefaa4    ....    BL       __aeabi_dsub ; 0x2320
        0x00003dd8:    4a05        .J      LDR      r2,[pc,#20] ; [0x3df0] = 0x54442d18
        0x00003dda:    4b07        .K      LDR      r3,[pc,#28] ; [0x3df8] = 0x400921fb
        0x00003ddc:    f7fefaab    ....    BL       __aeabi_drsub ; 0x2336
        0x00003de0:    b005        ..      ADD      sp,sp,#0x14
        0x00003de2:    bdf0        ..      POP      {r4-r7,pc}
    $d
        0x00003de4:    7ff00000    ....    DCD    2146435072
        0x00003de8:    c0100000    ....    DCD    3222274048
        0x00003dec:    00000484    ....    DCD    1156
        0x00003df0:    54442d18    .-DT    DCD    1413754136
        0x00003df4:    bff921fb    .!..    DCD    3220775419
        0x00003df8:    400921fb    .!.@    DCD    1074340347
        0x00003dfc:    c00921fb    .!..    DCD    3221823995
        0x00003e00:    3ff921fb    .!.?    DCD    1073291771
        0x00003e04:    33145c07    .\.3    DCD    856972295
        0x00003e08:    3ca1a626    &..<    DCD    1017226790
    $t
    locale$$code
    _get_lc_numeric
        0x00003e0c:    b510        ..      PUSH     {r4,lr}
        0x00003e0e:    2900        .)      CMP      r1,#0
        0x00003e10:    d00a        ..      BEQ      0x3e28 ; _get_lc_numeric + 28
        0x00003e12:    7808        .x      LDRB     r0,[r1,#0]
        0x00003e14:    2800        .(      CMP      r0,#0
        0x00003e16:    d007        ..      BEQ      0x3e28 ; _get_lc_numeric + 28
        0x00003e18:    4805        .H      LDR      r0,[pc,#20] ; [0x3e30] = 0x452
        0x00003e1a:    4478        xD      ADD      r0,r0,pc
        0x00003e1c:    f7fffd3a    ..:.    BL       strcmp ; 0x3894
        0x00003e20:    2800        .(      CMP      r0,#0
        0x00003e22:    d001        ..      BEQ      0x3e28 ; _get_lc_numeric + 28
        0x00003e24:    2000        .       MOVS     r0,#0
        0x00003e26:    bd10        ..      POP      {r4,pc}
        0x00003e28:    4802        .H      LDR      r0,[pc,#8] ; [0x3e34] = 0x44a
        0x00003e2a:    4478        xD      ADD      r0,r0,pc
        0x00003e2c:    bd10        ..      POP      {r4,pc}
    $d
        0x00003e2e:    0000        ..      DCW    0
        0x00003e30:    00000452    R...    DCD    1106
        0x00003e34:    0000044a    J...    DCD    1098
    $t
    x$fpl$fadd
    __aeabi_fadd
    _fadd
        0x00003e38:    b570        p.      PUSH     {r4-r6,lr}
        0x00003e3a:    2501        .%      MOVS     r5,#1
        0x00003e3c:    0004        ..      MOVS     r4,r0
        0x00003e3e:    07ed        ..      LSLS     r5,r5,#31
        0x00003e40:    404c        L@      EORS     r4,r4,r1
        0x00003e42:    d420         .      BMI      0x3e86 ; _fadd1 + 66
    _fadd1
        0x00003e44:    1a44        D.      SUBS     r4,r0,r1
        0x00003e46:    d201        ..      BCS      0x3e4c ; _fadd1 + 8
        0x00003e48:    1b00        ..      SUBS     r0,r0,r4
        0x00003e4a:    1909        ..      ADDS     r1,r1,r4
        0x00003e4c:    0dc6        ..      LSRS     r6,r0,#23
        0x00003e4e:    004b        K.      LSLS     r3,r1,#1
        0x00003e50:    b2f2        ..      UXTB     r2,r6
        0x00003e52:    2aff        .*      CMP      r2,#0xff
        0x00003e54:    d029        ).      BEQ      0x3eaa ; _fadd1 + 102
        0x00003e56:    0e1b        ..      LSRS     r3,r3,#24
        0x00003e58:    d02c        ,.      BEQ      0x3eb4 ; _fadd1 + 112
        0x00003e5a:    0200        ..      LSLS     r0,r0,#8
        0x00003e5c:    020c        ..      LSLS     r4,r1,#8
        0x00003e5e:    1ad3        ..      SUBS     r3,r2,r3
        0x00003e60:    432c        ,C      ORRS     r4,r4,r5
        0x00003e62:    40dc        .@      LSRS     r4,r4,r3
        0x00003e64:    4328        (C      ORRS     r0,r0,r5
        0x00003e66:    1905        ..      ADDS     r5,r0,r4
        0x00003e68:    d210        ..      BCS      0x3e8c ; _fadd1 + 72
        0x00003e6a:    0a28        (.      LSRS     r0,r5,#8
        0x00003e6c:    d302        ..      BCC      0x3e74 ; _fadd1 + 48
        0x00003e6e:    1c40        @.      ADDS     r0,r0,#1
        0x00003e70:    066d        m.      LSLS     r5,r5,#25
        0x00003e72:    d011        ..      BEQ      0x3e98 ; _fadd1 + 84
        0x00003e74:    1e76        v.      SUBS     r6,r6,#1
        0x00003e76:    05f6        ..      LSLS     r6,r6,#23
        0x00003e78:    1980        ..      ADDS     r0,r0,r6
        0x00003e7a:    2aff        .*      CMP      r2,#0xff
        0x00003e7c:    da00        ..      BGE      0x3e80 ; _fadd1 + 60
        0x00003e7e:    bd70        p.      POP      {r4-r6,pc}
        0x00003e80:    0dc0        ..      LSRS     r0,r0,#23
        0x00003e82:    05c0        ..      LSLS     r0,r0,#23
        0x00003e84:    bd70        p.      POP      {r4-r6,pc}
        0x00003e86:    4069        i@      EORS     r1,r1,r5
        0x00003e88:    f000f87a    ..z.    BL       _fsub1 ; 0x3f80
        0x00003e8c:    2001        .       MOVS     r0,#1
        0x00003e8e:    4305        .C      ORRS     r5,r5,r0
        0x00003e90:    41c5        .A      RORS     r5,r5,r0
        0x00003e92:    1c52        R.      ADDS     r2,r2,#1
        0x00003e94:    1c76        v.      ADDS     r6,r6,#1
        0x00003e96:    e7e8        ..      B        0x3e6a ; _fadd1 + 38
        0x00003e98:    0864        d.      LSRS     r4,r4,#1
        0x00003e9a:    409c        .@      LSLS     r4,r4,r3
        0x00003e9c:    01c9        ..      LSLS     r1,r1,#7
        0x00003e9e:    4061        a@      EORS     r1,r1,r4
        0x00003ea0:    0089        ..      LSLS     r1,r1,#2
        0x00003ea2:    d1e7        ..      BNE      0x3e74 ; _fadd1 + 48
        0x00003ea4:    2401        .$      MOVS     r4,#1
        0x00003ea6:    43a0        .C      BICS     r0,r0,r4
        0x00003ea8:    e7e4        ..      B        0x3e74 ; _fadd1 + 48
        0x00003eaa:    0e1b        ..      LSRS     r3,r3,#24
        0x00003eac:    0244        D.      LSLS     r4,r0,#9
        0x00003eae:    d000        ..      BEQ      0x3eb2 ; _fadd1 + 110
        0x00003eb0:    4803        .H      LDR      r0,[pc,#12] ; [0x3ec0] = 0x7fc00000
        0x00003eb2:    bd70        p.      POP      {r4-r6,pc}
        0x00003eb4:    2a00        .*      CMP      r2,#0
        0x00003eb6:    d1fc        ..      BNE      0x3eb2 ; _fadd1 + 110
        0x00003eb8:    0fc0        ..      LSRS     r0,r0,#31
        0x00003eba:    07c0        ..      LSLS     r0,r0,#31
        0x00003ebc:    bd70        p.      POP      {r4-r6,pc}
        0x00003ebe:    bf00        ..      NOP      
    $d
        0x00003ec0:    7fc00000    ....    DCD    2143289344
    $t
    x$fpl$fmul
    __aeabi_fmul
    _fmul
        0x00003ec4:    b570        p.      PUSH     {r4-r6,lr}
        0x00003ec6:    0042        B.      LSLS     r2,r0,#1
        0x00003ec8:    4164        dA      ADCS     r4,r4,r4
        0x00003eca:    004b        K.      LSLS     r3,r1,#1
        0x00003ecc:    415c        \A      ADCS     r4,r4,r3
        0x00003ece:    0e12        ..      LSRS     r2,r2,#24
        0x00003ed0:    d039        9.      BEQ      0x3f46 ; __aeabi_fmul + 130
        0x00003ed2:    0e1b        ..      LSRS     r3,r3,#24
        0x00003ed4:    d038        8.      BEQ      0x3f48 ; __aeabi_fmul + 132
        0x00003ed6:    2aff        .*      CMP      r2,#0xff
        0x00003ed8:    d03c        <.      BEQ      0x3f54 ; __aeabi_fmul + 144
        0x00003eda:    2bff        .+      CMP      r3,#0xff
        0x00003edc:    d03a        :.      BEQ      0x3f54 ; __aeabi_fmul + 144
        0x00003ede:    0240        @.      LSLS     r0,r0,#9
        0x00003ee0:    0249        I.      LSLS     r1,r1,#9
        0x00003ee2:    0a40        @.      LSRS     r0,r0,#9
        0x00003ee4:    0a49        I.      LSRS     r1,r1,#9
        0x00003ee6:    0006        ..      MOVS     r6,r0
        0x00003ee8:    1845        E.      ADDS     r5,r0,r1
        0x00003eea:    434e        NC      MULS     r6,r1,r6
        0x00003eec:    0a00        ..      LSRS     r0,r0,#8
        0x00003eee:    0a09        ..      LSRS     r1,r1,#8
        0x00003ef0:    18d2        ..      ADDS     r2,r2,r3
        0x00003ef2:    4348        HC      MULS     r0,r1,r0
        0x00003ef4:    01ed        ..      LSLS     r5,r5,#7
        0x00003ef6:    3a7f        .:      SUBS     r2,r2,#0x7f
        0x00003ef8:    0401        ..      LSLS     r1,r0,#16
        0x00003efa:    1a73        s.      SUBS     r3,r6,r1
        0x00003efc:    1940        @.      ADDS     r0,r0,r5
        0x00003efe:    0c19        ..      LSRS     r1,r3,#16
        0x00003f00:    1843        C.      ADDS     r3,r0,r1
        0x00003f02:    0f99        ..      LSRS     r1,r3,#30
        0x00003f04:    d004        ..      BEQ      0x3f10 ; __aeabi_fmul + 76
        0x00003f06:    2101        .!      MOVS     r1,#1
        0x00003f08:    085b        [.      LSRS     r3,r3,#1
        0x00003f0a:    0749        I.      LSLS     r1,r1,#29
        0x00003f0c:    1a5b        [.      SUBS     r3,r3,r1
        0x00003f0e:    1c52        R.      ADDS     r2,r2,#1
        0x00003f10:    09d8        ..      LSRS     r0,r3,#7
        0x00003f12:    d304        ..      BCC      0x3f1e ; __aeabi_fmul + 90
        0x00003f14:    1c40        @.      ADDS     r0,r0,#1
        0x00003f16:    03f5        ..      LSLS     r5,r6,#15
        0x00003f18:    d101        ..      BNE      0x3f1e ; __aeabi_fmul + 90
        0x00003f1a:    069d        ..      LSLS     r5,r3,#26
        0x00003f1c:    d007        ..      BEQ      0x3f2e ; __aeabi_fmul + 106
        0x00003f1e:    2aff        .*      CMP      r2,#0xff
        0x00003f20:    d208        ..      BCS      0x3f34 ; __aeabi_fmul + 112
        0x00003f22:    05d5        ..      LSLS     r5,r2,#23
        0x00003f24:    d006        ..      BEQ      0x3f34 ; __aeabi_fmul + 112
        0x00003f26:    07e4        ..      LSLS     r4,r4,#31
        0x00003f28:    4320         C      ORRS     r0,r0,r4
        0x00003f2a:    1940        @.      ADDS     r0,r0,r5
        0x00003f2c:    bd70        p.      POP      {r4-r6,pc}
        0x00003f2e:    2501        .%      MOVS     r5,#1
        0x00003f30:    43a8        .C      BICS     r0,r0,r5
        0x00003f32:    e7f4        ..      B        0x3f1e ; __aeabi_fmul + 90
        0x00003f34:    2a00        .*      CMP      r2,#0
        0x00003f36:    dc01        ..      BGT      0x3f3c ; __aeabi_fmul + 120
        0x00003f38:    07e0        ..      LSLS     r0,r4,#31
        0x00003f3a:    bd70        p.      POP      {r4-r6,pc}
        0x00003f3c:    0224        $.      LSLS     r4,r4,#8
        0x00003f3e:    20ff        .       MOVS     r0,#0xff
        0x00003f40:    4320         C      ORRS     r0,r0,r4
        0x00003f42:    05c0        ..      LSLS     r0,r0,#23
        0x00003f44:    bd70        p.      POP      {r4-r6,pc}
        0x00003f46:    0e1b        ..      LSRS     r3,r3,#24
        0x00003f48:    2aff        .*      CMP      r2,#0xff
        0x00003f4a:    d003        ..      BEQ      0x3f54 ; __aeabi_fmul + 144
        0x00003f4c:    2bff        .+      CMP      r3,#0xff
        0x00003f4e:    d001        ..      BEQ      0x3f54 ; __aeabi_fmul + 144
        0x00003f50:    07e0        ..      LSLS     r0,r4,#31
        0x00003f52:    bd70        p.      POP      {r4-r6,pc}
        0x00003f54:    26ff        .&      MOVS     r6,#0xff
        0x00003f56:    0045        E.      LSLS     r5,r0,#1
        0x00003f58:    0636        6.      LSLS     r6,r6,#24
        0x00003f5a:    42b5        .B      CMP      r5,r6
        0x00003f5c:    d806        ..      BHI      0x3f6c ; __aeabi_fmul + 168
        0x00003f5e:    004d        M.      LSLS     r5,r1,#1
        0x00003f60:    42b5        .B      CMP      r5,r6
        0x00003f62:    d803        ..      BHI      0x3f6c ; __aeabi_fmul + 168
        0x00003f64:    18d2        ..      ADDS     r2,r2,r3
        0x00003f66:    2aff        .*      CMP      r2,#0xff
        0x00003f68:    d000        ..      BEQ      0x3f6c ; __aeabi_fmul + 168
        0x00003f6a:    e7e7        ..      B        0x3f3c ; __aeabi_fmul + 120
        0x00003f6c:    4800        .H      LDR      r0,[pc,#0] ; [0x3f70] = 0x7fc00000
        0x00003f6e:    bd70        p.      POP      {r4-r6,pc}
    $d
        0x00003f70:    7fc00000    ....    DCD    2143289344
    $t
    x$fpl$fsub
    __aeabi_fsub
    _fsub
        0x00003f74:    b570        p.      PUSH     {r4-r6,lr}
        0x00003f76:    2501        .%      MOVS     r5,#1
        0x00003f78:    0004        ..      MOVS     r4,r0
        0x00003f7a:    07ed        ..      LSLS     r5,r5,#31
        0x00003f7c:    404c        L@      EORS     r4,r4,r1
        0x00003f7e:    d422        ".      BMI      0x3fc6 ; _fsub1 + 70
    _fsub1
        0x00003f80:    1a44        D.      SUBS     r4,r0,r1
        0x00003f82:    d202        ..      BCS      0x3f8a ; _fsub1 + 10
        0x00003f84:    406c        l@      EORS     r4,r4,r5
        0x00003f86:    1b00        ..      SUBS     r0,r0,r4
        0x00003f88:    1909        ..      ADDS     r1,r1,r4
        0x00003f8a:    0dc6        ..      LSRS     r6,r0,#23
        0x00003f8c:    004b        K.      LSLS     r3,r1,#1
        0x00003f8e:    b2f2        ..      UXTB     r2,r6
        0x00003f90:    2aff        .*      CMP      r2,#0xff
        0x00003f92:    d04b        K.      BEQ      0x402c ; _fsub1 + 172
        0x00003f94:    0e1b        ..      LSRS     r3,r3,#24
        0x00003f96:    d050        P.      BEQ      0x403a ; _fsub1 + 186
        0x00003f98:    0200        ..      LSLS     r0,r0,#8
        0x00003f9a:    020c        ..      LSLS     r4,r1,#8
        0x00003f9c:    1ad3        ..      SUBS     r3,r2,r3
        0x00003f9e:    432c        ,C      ORRS     r4,r4,r5
        0x00003fa0:    40dc        .@      LSRS     r4,r4,r3
        0x00003fa2:    43a8        .C      BICS     r0,r0,r5
        0x00003fa4:    1b05        ..      SUBS     r5,r0,r4
        0x00003fa6:    d505        ..      BPL      0x3fb4 ; _fsub1 + 52
        0x00003fa8:    00ad        ..      LSLS     r5,r5,#2
        0x00003faa:    d319        ..      BCC      0x3fe0 ; _fsub1 + 96
        0x00003fac:    086d        m.      LSRS     r5,r5,#1
        0x00003fae:    1e76        v.      SUBS     r6,r6,#1
        0x00003fb0:    1e52        R.      SUBS     r2,r2,#1
        0x00003fb2:    d037        7.      BEQ      0x4024 ; _fsub1 + 164
        0x00003fb4:    05f6        ..      LSLS     r6,r6,#23
        0x00003fb6:    0a28        (.      LSRS     r0,r5,#8
        0x00003fb8:    d201        ..      BCS      0x3fbe ; _fsub1 + 62
        0x00003fba:    1980        ..      ADDS     r0,r0,r6
        0x00003fbc:    bd70        p.      POP      {r4-r6,pc}
        0x00003fbe:    4170        pA      ADCS     r0,r0,r6
        0x00003fc0:    066d        m.      LSLS     r5,r5,#25
        0x00003fc2:    d003        ..      BEQ      0x3fcc ; _fsub1 + 76
        0x00003fc4:    bd70        p.      POP      {r4-r6,pc}
        0x00003fc6:    4069        i@      EORS     r1,r1,r5
        0x00003fc8:    f7ffff3c    ..<.    BL       _fadd1 ; 0x3e44
        0x00003fcc:    409c        .@      LSLS     r4,r4,r3
        0x00003fce:    0209        ..      LSLS     r1,r1,#8
        0x00003fd0:    4061        a@      EORS     r1,r1,r4
        0x00003fd2:    0049        I.      LSLS     r1,r1,#1
        0x00003fd4:    d001        ..      BEQ      0x3fda ; _fsub1 + 90
        0x00003fd6:    1e40        @.      SUBS     r0,r0,#1
        0x00003fd8:    bd70        p.      POP      {r4-r6,pc}
        0x00003fda:    2401        .$      MOVS     r4,#1
        0x00003fdc:    43a0        .C      BICS     r0,r0,r4
        0x00003fde:    bd70        p.      POP      {r4-r6,pc}
        0x00003fe0:    086d        m.      LSRS     r5,r5,#1
        0x00003fe2:    d01d        ..      BEQ      0x4020 ; _fsub1 + 160
        0x00003fe4:    2001        .       MOVS     r0,#1
        0x00003fe6:    0c2b        +.      LSRS     r3,r5,#16
        0x00003fe8:    d101        ..      BNE      0x3fee ; _fsub1 + 110
        0x00003fea:    042d        -.      LSLS     r5,r5,#16
        0x00003fec:    3010        .0      ADDS     r0,r0,#0x10
        0x00003fee:    0e2b        +.      LSRS     r3,r5,#24
        0x00003ff0:    d101        ..      BNE      0x3ff6 ; _fsub1 + 118
        0x00003ff2:    022d        -.      LSLS     r5,r5,#8
        0x00003ff4:    3008        .0      ADDS     r0,r0,#8
        0x00003ff6:    0f2b        +.      LSRS     r3,r5,#28
        0x00003ff8:    d101        ..      BNE      0x3ffe ; _fsub1 + 126
        0x00003ffa:    012d        -.      LSLS     r5,r5,#4
        0x00003ffc:    1d00        ..      ADDS     r0,r0,#4
        0x00003ffe:    0fab        ..      LSRS     r3,r5,#30
        0x00004000:    d101        ..      BNE      0x4006 ; _fsub1 + 134
        0x00004002:    00ad        ..      LSLS     r5,r5,#2
        0x00004004:    1c80        ..      ADDS     r0,r0,#2
        0x00004006:    0feb        ..      LSRS     r3,r5,#31
        0x00004008:    d101        ..      BNE      0x400e ; _fsub1 + 142
        0x0000400a:    006d        m.      LSLS     r5,r5,#1
        0x0000400c:    1c40        @.      ADDS     r0,r0,#1
        0x0000400e:    006d        m.      LSLS     r5,r5,#1
        0x00004010:    1a36        6.      SUBS     r6,r6,r0
        0x00004012:    1a12        ..      SUBS     r2,r2,r0
        0x00004014:    0a68        h.      LSRS     r0,r5,#9
        0x00004016:    05f5        ..      LSLS     r5,r6,#23
        0x00004018:    1940        @.      ADDS     r0,r0,r5
        0x0000401a:    2a01        .*      CMP      r2,#1
        0x0000401c:    db02        ..      BLT      0x4024 ; _fsub1 + 164
        0x0000401e:    bd70        p.      POP      {r4-r6,pc}
        0x00004020:    2000        .       MOVS     r0,#0
        0x00004022:    bd70        p.      POP      {r4-r6,pc}
        0x00004024:    36c0        .6      ADDS     r6,r6,#0xc0
        0x00004026:    0a30        0.      LSRS     r0,r6,#8
        0x00004028:    07c0        ..      LSLS     r0,r0,#31
        0x0000402a:    bd70        p.      POP      {r4-r6,pc}
        0x0000402c:    0e1b        ..      LSRS     r3,r3,#24
        0x0000402e:    0244        D.      LSLS     r4,r0,#9
        0x00004030:    d101        ..      BNE      0x4036 ; _fsub1 + 182
        0x00004032:    2bff        .+      CMP      r3,#0xff
        0x00004034:    d100        ..      BNE      0x4038 ; _fsub1 + 184
        0x00004036:    4802        .H      LDR      r0,[pc,#8] ; [0x4040] = 0x7fc00000
        0x00004038:    bd70        p.      POP      {r4-r6,pc}
        0x0000403a:    2a00        .*      CMP      r2,#0
        0x0000403c:    d0f0        ..      BEQ      0x4020 ; _fsub1 + 160
        0x0000403e:    bd70        p.      POP      {r4-r6,pc}
    $d
        0x00004040:    7fc00000    ....    DCD    2143289344
    $t
    x$fpl$printf1
    _printf_fp_dec
        0x00004044:    b403        ..      PUSH     {r0,r1}
        0x00004046:    4802        .H      LDR      r0,[pc,#8] ; [0x4050] = 0xffffee23
        0x00004048:    4478        xD      ADD      r0,r0,pc
        0x0000404a:    4684        .F      MOV      r12,r0
        0x0000404c:    bc03        ..      POP      {r0,r1}
        0x0000404e:    4760        `G      BX       r12
    $d
        0x00004050:    ffffee23    #...    DCD    4294962723
    $d.realdata
    .constdata
    ddiv_reciptbl
    x$fpl$usenofp
    __I$use$fp
        0x00004054:    7e7f8080    ...~    DCD    2122285184
        0x00004058:    7a7b7c7d    }|{z    DCD    2054913149
        0x0000405c:    76777879    yxwv    DCD    1987541113
        0x00004060:    73747576    vuts    DCD    1937012086
        0x00004064:    70717172    rqqp    DCD    1886482802
        0x00004068:    6d6e6e6f    onnm    DCD    1835953775
        0x0000406c:    6a6b6c6c    llkj    DCD    1785425004
        0x00004070:    6868696a    jihh    DCD    1751673194
        0x00004074:    65666667    gffe    DCD    1701209703
        0x00004078:    63636464    ddcc    DCD    1667458148
        0x0000407c:    60616162    baa`    DCD    1616994658
        0x00004080:    5e5f5f60    `__^    DCD    1583308640
        0x00004084:    5c5d5d5e    ^]]\    DCD    1549622622
        0x00004088:    5a5b5b5c    \[[Z    DCD    1515936604
        0x0000408c:    5859595a    ZYYX    DCD    1482250586
        0x00004090:    56575758    XWWV    DCD    1448564568
        0x00004094:    55555556    VUUU    DCD    1431655766
        0x00004098:    53535454    TTSS    DCD    1397970004
        0x0000409c:    51525252    RRRQ    DCD    1364349522
        0x000040a0:    50505051    QPPP    DCD    1347440721
        0x000040a4:    4e4f4f4f    OOON    DCD    1313820495
        0x000040a8:    4d4d4d4e    NMMM    DCD    1296911694
        0x000040ac:    4b4c4c4c    LLLK    DCD    1263291468
        0x000040b0:    4a4a4b4b    KKJJ    DCD    1246382923
        0x000040b4:    4949494a    JIII    DCD    1229539658
        0x000040b8:    47484848    HHHG    DCD    1195919432
        0x000040bc:    46474747    GGGF    DCD    1179076423
        0x000040c0:    45454646    FFEE    DCD    1162167878
        0x000040c4:    44444445    EDDD    DCD    1145324613
        0x000040c8:    43434344    DCCC    DCD    1128481604
        0x000040cc:    42424243    CBBB    DCD    1111638595
        0x000040d0:    41414142    BAAA    DCD    1094795586
    .constdata
    fdiv_tab
        0x000040d4:    84838281    ....    DCD    2223211137
        0x000040d8:    88878685    ....    DCD    2290583173
        0x000040dc:    8d8c8b89    ....    DCD    2374798217
        0x000040e0:    92918f8e    ....    DCD    2459013006
        0x000040e4:    97969593    ....    DCD    2543228307
        0x000040e8:    9d9c9a99    ....    DCD    2644286105
        0x000040ec:    a3a2a09f    ....    DCD    2745344159
        0x000040f0:    aaa8a7a5    ....    DCD    2863179685
        0x000040f4:    b2b0aeac    ....    DCD    2997923500
        0x000040f8:    b9b7b5b3    ....    DCD    3115824563
        0x000040fc:    c2c0bebc    ....    DCD    3267411644
        0x00004100:    ccc9c7c5    ....    DCD    3435775941
        0x00004104:    d7d4d1ce    ....    DCD    3621048782
        0x00004108:    e2dfdcd9    ....    DCD    3806321881
        0x0000410c:    f0ece9e6    ....    DCD    4042058214
        0x00004110:    fefaf7f3    ....    DCD    4277860339
        0x00004114:    00000000    ....    DCD    0
    .constdata
    atanhi
        0x00004118:    0561bb4f    O.a.    DCD    90291023
        0x0000411c:    3fddac67    g..?    DCD    1071492199
        0x00004120:    54442d18    .-DT    DCD    1413754136
        0x00004124:    3fe921fb    .!.?    DCD    1072243195
        0x00004128:    d281f69b    ....    DCD    3531732635
        0x0000412c:    3fef730b    .s.?    DCD    1072657163
        0x00004130:    54442d18    .-DT    DCD    1413754136
        0x00004134:    3ff921fb    .!.?    DCD    1073291771
    atanlo
        0x00004138:    222f65e2    .e/"    DCD    573531618
        0x0000413c:    3c7a2b7f    .+z<    DCD    1014639487
        0x00004140:    33145c07    .\.3    DCD    856972295
        0x00004144:    3c81a626    &..<    DCD    1015129638
        0x00004148:    7af0cbbd    ...z    DCD    2062601149
        0x0000414c:    3c700788    ..p<    DCD    1013974920
        0x00004150:    33145c07    .\.3    DCD    856972295
        0x00004154:    3c91a626    &..<    DCD    1016178214
    aTodd
        0x00004158:    9998ebc4    ....    DCD    2576935876
        0x0000415c:    bfc99999    ....    DCD    3217660313
        0x00004160:    fe231671    q.#.    DCD    4263712369
        0x00004164:    bfbc71c6    .q..    DCD    3216798150
        0x00004168:    af749a6d    m.t.    DCD    2943654509
        0x0000416c:    bfb3b0f2    ....    DCD    3216224498
        0x00004170:    52defd9a    ...R    DCD    1390345626
        0x00004174:    bfadde2d    -...    DCD    3215842861
        0x00004178:    2c6a6c2f    /lj,    DCD    745172015
        0x0000417c:    bfa2b444    D...    DCD    3215111236
    aTeven
        0x00004180:    5555550d    .UUU    DCD    1431655693
        0x00004184:    3fd55555    UU.?    DCD    1070945621
        0x00004188:    920083ff    ....    DCD    2449507327
        0x0000418c:    3fc24924    $I.?    DCD    1069697316
        0x00004190:    c54c206e    n L.    DCD    3310100590
        0x00004194:    3fb745cd    .E.?    DCD    1068975565
        0x00004198:    a0d03d51    Q=..    DCD    2698001745
        0x0000419c:    3fb10d66    f..?    DCD    1068567910
        0x000041a0:    24760deb    ..v$    DCD    611716587
        0x000041a4:    3fa97b4b    K{.?    DCD    1068071755
        0x000041a8:    e322da11    ..".    DCD    3810712081
        0x000041ac:    3f90ad3a    :..?    DCD    1066446138
    .constdata
    __mathlib_zero
        0x000041b0:    00000000    ....    DCD    0
        0x000041b4:    00000000    ....    DCD    0
    .constdata
    tenpwrs_x
        0x000041b8:    00004002    .@..    DCD    16386
        0x000041bc:    a0000000    ....    DCD    2684354560
        0x000041c0:    00000000    ....    DCD    0
        0x000041c4:    00004005    .@..    DCD    16389
        0x000041c8:    c8000000    ....    DCD    3355443200
        0x000041cc:    00000000    ....    DCD    0
        0x000041d0:    0000400c    .@..    DCD    16396
        0x000041d4:    9c400000    ..@.    DCD    2621440000
        0x000041d8:    00000000    ....    DCD    0
        0x000041dc:    00004019    .@..    DCD    16409
        0x000041e0:    bebc2000    . ..    DCD    3200000000
        0x000041e4:    00000000    ....    DCD    0
        0x000041e8:    00004034    4@..    DCD    16436
        0x000041ec:    8e1bc9bf    ....    DCD    2384185791
        0x000041f0:    04000000    ....    DCD    67108864
    tenpwrs_i
        0x000041f4:    000040b5    .@..    DCD    16565
        0x000041f8:    d0cf4b50    PK..    DCD    3503246160
        0x000041fc:    cfe20766    f...    DCD    3487696742
        0x00004200:    00000001    ....    DCD    1
        0x00004204:    0000416c    lA..    DCD    16748
        0x00004208:    aa51823e    >.Q.    DCD    2857468478
        0x0000420c:    34a7eedf    ...4    DCD    883420895
        0x00004210:    00000001    ....    DCD    1
        0x00004214:    000042d9    .B..    DCD    17113
        0x00004218:    e2a0b5dc    ....    DCD    3802183132
        0x0000421c:    971f303a    :0..    DCD    2535403578
        0x00004220:    ffffffff    ....    DCD    4294967295
        0x00004224:    000045b4    .E..    DCD    17844
        0x00004228:    c8a025fd    .%..    DCD    3365938685
        0x0000422c:    4fc1a3e9    ...O    DCD    1338090473
        0x00004230:    ffffffff    ....    DCD    4294967295
        0x00004234:    00003fff    .?..    DCD    16383
        0x00004238:    80000000    ....    DCD    2147483648
        0x0000423c:    00000000    ....    DCD    0
        0x00004240:    00003fff    .?..    DCD    16383
        0x00004244:    80000000    ....    DCD    2147483648
        0x00004248:    00000000    ....    DCD    0
    Region$$Table$$Base
        0x0000424c:    00004288    .B..    DCD    17032
        0x00004250:    20000000    ...     DCD    536870912
        0x00004254:    0000004c    L...    DCD    76
        0x00004258:    00000104    ....    DCD    260
        0x0000425c:    000042d4    .B..    DCD    17108
        0x00004260:    2000004c    L..     DCD    536870988
        0x00004264:    000004bc    ....    DCD    1212
        0x00004268:    00000120     ...    DCD    288
    locale$$data
    Region$$Table$$Limit
        0x0000426c:    0000001c    ....    DCD    28
    __lcnum_c_name
        0x00004270:    00000043    C...    DCD    67
        0x00004274:    fffffff8    ....    DCD    4294967288
    __lcnum_c_start
        0x00004278:    0000000c    ....    DCD    12
        0x0000427c:    0000000e    ....    DCD    14
        0x00004280:    0000000f    ....    DCD    15
    __lcnum_c_point
        0x00004284:    002e        ..      DCW    46
    __lcnum_c_thousands
        0x00004286:    00          .       DCB    0
    __lcnum_c_grouping
        0x00004287:    00          .       DCB    0
    __lcnum_c_end

** Section #2 'ER_RW' (SHT_PROGBITS) [SHF_ALLOC + SHF_WRITE]
    Size   : 76 bytes (alignment 4)
    Address: 0x20000000


** Section #3 'ER_ZI' (SHT_NOBITS) [SHF_ALLOC + SHF_WRITE]
    Size   : 1212 bytes (alignment 8)
    Address: 0x2000004c


** Section #4 '.debug_abbrev' (SHT_PROGBITS)
    Size   : 1476 bytes


** Section #5 '.debug_frame' (SHT_PROGBITS)
    Size   : 3204 bytes


** Section #6 '.debug_info' (SHT_PROGBITS)
    Size   : 9492 bytes


** Section #7 '.debug_line' (SHT_PROGBITS)
    Size   : 5008 bytes


** Section #8 '.debug_loc' (SHT_PROGBITS)
    Size   : 2320 bytes


** Section #9 '.debug_macinfo' (SHT_PROGBITS)
    Size   : 2684 bytes


** Section #10 '.debug_pubnames' (SHT_PROGBITS)
    Size   : 1473 bytes


** Section #11 '.symtab' (SHT_SYMTAB)
    Size   : 9760 bytes (alignment 4)
    String table #12 '.strtab'
    Last local symbol no. 378


** Section #12 '.strtab' (SHT_STRTAB)
    Size   : 7244 bytes


** Section #13 '.note' (SHT_NOTE)
    Size   : 28 bytes (alignment 4)


** Section #14 '.comment' (SHT_PROGBITS)
    Size   : 4524 bytes


** Section #15 '.shstrtab' (SHT_STRTAB)
    Size   : 156 bytes


